             VMA              LMA     Size Align Out     In      Symbol
               0                0  1000000     1 . = 0x1000000
         1000000          1000000      234  4096 .text
         1000000          1000000       1a     2         /home/ryoj/github.com/okamotonr/mios/target/riscv64gc-unknown-none-elf/debug/deps/user-bdd25f5409a27239.f1b0ip2wsispgabyyqta4gta5.rcgu.o:(.text.start)
         1000000          1000000        0     1                 .L0 
         1000000          1000000        0     1                 .L0 
         1000000          1000000        0     1                 .Lpcrel_hi0
         1000000          1000000        0     1                 $x
         1000000          1000000        0     1                 .L0 
         1000000          1000000       1a     1                 start
         100001a          100001a        0     1                 .L0 
         100001a          100001a       20     2         /home/ryoj/github.com/okamotonr/mios/target/riscv64gc-unknown-none-elf/debug/deps/user-bdd25f5409a27239.0xneceyl6by6oi29e45jffuzg.rcgu.o:(.text._ZN4core3str21_$LT$impl$u20$str$GT$5bytes17h59853e0c795fb5c2E)
         100001a          100001a        0     1                 .L0 
         100001a          100001a        0     1                 .L0 
         100001a          100001a        0     1                 $x
         100001a          100001a        0     1                 .L0 
         100001a          100001a       20     1                 core::str::_$LT$impl$u20$str$GT$::bytes::h59853e0c795fb5c2
         1000020          1000020        0     1                 .L0 
         1000020          1000020        0     1                 .L0 
         1000024          1000024        0     1                 .L0 
         1000024          1000024        0     1                 .L0 
         1000026          1000026        0     1                 .L0 
         1000026          1000026        0     1                 .L0 
         100002a          100002a        0     1                 .L0 
         100002a          100002a        0     1                 .L0 
         100002c          100002c        0     1                 .L0 
         100002c          100002c        0     1                 .L0 
         100002e          100002e        0     1                 .L0 
         100002e          100002e        0     1                 .L0 
         1000030          1000030        0     1                 .L0 
         1000032          1000032        0     1                 .L0 
         1000032          1000032        0     1                 .L0 
         1000036          1000036        0     1                 .L0 
         100003a          100003a        0     1                 .L0 
         100003a          100003a        a     2         /home/ryoj/github.com/okamotonr/mios/target/riscv64gc-unknown-none-elf/debug/deps/user-bdd25f5409a27239.1mb3uunhncphz5ab99i3emowg.rcgu.o:(.text._ZN63_$LT$I$u20$as$u20$core..iter..traits..collect..IntoIterator$GT$9into_iter17h9963b0645d69f796E)
         100003a          100003a        0     1                 .L0 
         100003a          100003a        0     1                 .L0 
         100003a          100003a        0     1                 $x
         100003a          100003a        0     1                 .L0 
         100003a          100003a        a     1                 _$LT$I$u20$as$u20$core..iter..traits..collect..IntoIterator$GT$::into_iter::h9963b0645d69f796
         1000040          1000040        0     1                 .L0 
         1000044          1000044        0     1                 .L0 
         1000044          1000044       70     2         /home/ryoj/github.com/okamotonr/mios/target/riscv64gc-unknown-none-elf/debug/deps/user-bdd25f5409a27239.2w3ubjqeucrdxmjkruzll16uf.rcgu.o:(.text._ZN91_$LT$core..slice..iter..Iter$LT$T$GT$$u20$as$u20$core..iter..traits..iterator..Iterator$GT$4next17h7b96b855ee6739f3E)
         1000044          1000044        0     1                 .L0 
         1000044          1000044        0     1                 .L0 
         1000044          1000044        0     1                 $x
         1000044          1000044        0     1                 .L0 
         1000044          1000044       70     1                 _$LT$core..slice..iter..Iter$LT$T$GT$$u20$as$u20$core..iter..traits..iterator..Iterator$GT$::next::h7b96b855ee6739f3
         100004c          100004c        0     1                 .L0 
         100004e          100004e        0     1                 .L0 
         1000050          1000050        0     1                 .L0 
         1000052          1000052        0     1                 .L0 
         1000054          1000054        0     1                 .L0 
         100005a          100005a        0     1                 .L0 
         100005e          100005e        0     1                 .L0 
         100005e          100005e        0     1                 .L0 
         1000062          1000062        0     1                 .L0 
         1000064          1000064        0     1                 .L0 
         1000064          1000064        0     1                 .L0 
         1000068          1000068        0     1                 .L0 
         1000068          1000068        0     1                 .L0 
         100006a          100006a        0     1                 .L0 
         1000074          1000074        0     1                 .L0 
         1000076          1000076        0     1                 .L0 
         1000080          1000080        0     1                 .L0 
         1000082          1000082        0     1                 .L0 
         1000082          1000082        0     1                 .L0 
         1000086          1000086        0     1                 .L0 
         1000086          1000086        0     1                 .L0 
         1000088          1000088        0     1                 .L0 
         1000088          1000088        0     1                 .L0 
         100008a          100008a        0     1                 .L0 
         100008c          100008c        0     1                 .L0 
         100008e          100008e        0     1                 .L0 
         1000090          1000090        0     1                 .L0 
         1000090          1000090        0     1                 .L0 
         1000096          1000096        0     1                 .L0 
         1000096          1000096        0     1                 .L0 
         1000098          1000098        0     1                 .L0 
         1000098          1000098        0     1                 .L0 
         100009c          100009c        0     1                 .L0 
         100009c          100009c        0     1                 .L0 
         100009e          100009e        0     1                 .L0 
         100009e          100009e        0     1                 .L0 
         10000a0          10000a0        0     1                 .L0 
         10000a0          10000a0        0     1                 .L0 
         10000a2          10000a2        0     1                 .L0 
         10000a2          10000a2        0     1                 .L0 
         10000a4          10000a4        0     1                 .L0 
         10000a6          10000a6        0     1                 .L0 
         10000a6          10000a6        0     1                 .L0 
         10000aa          10000aa        0     1                 .L0 
         10000aa          10000aa        0     1                 .L0 
         10000ac          10000ac        0     1                 .L0 
         10000ae          10000ae        0     1                 .L0 
         10000b0          10000b0        0     1                 .L0 
         10000b4          10000b4        0     1                 .L0 
         10000b4          10000b4        0     1                 .L0 
         10000b4          10000b4        0     1                 .L0 
         10000b4          10000b4       5c     2         /home/ryoj/github.com/okamotonr/mios/target/riscv64gc-unknown-none-elf/debug/deps/user-bdd25f5409a27239.9bzuzcpitrenldo4mka73e51c.rcgu.o:(.text.main)
         10000b4          10000b4        0     1                 .L0 
         10000b4          10000b4        0     1                 .L0 
         10000b4          10000b4        0     1                 $x
         10000b4          10000b4        0     1                 .L0 
         10000b4          10000b4       5c     1                 main
         10000b8          10000b8        0     1                 .Lpcrel_hi0
         10000b8          10000b8        0     1                 .L0 
         10000b8          10000b8        0     1                 .L0 
         10000c6          10000c6        0     1                 .L0 
         10000da          10000da        0     1                 .L0 
         10000dc          10000dc        0     1                 .L0 
         10000de          10000de        0     1                 .L0 
         10000fa          10000fa        0     1                 .L0 
         10000fa          10000fa        0     1                 .L0 
         10000fe          10000fe        0     1                 .L0 
         10000fe          10000fe        0     1                 .L0 
         1000106          1000106        0     1                 .L0 
         1000106          1000106        0     1                 .L0 
         1000110          1000110        0     1                 .L0 
         1000110          1000110        0     1                 .L0 
         1000110          1000110        0     1                 .L0 
         1000110          1000110        0     1                 .L0 
         1000110          1000110       58     2         /home/ryoj/github.com/okamotonr/mios/target/riscv64gc-unknown-none-elf/debug/deps/user-bdd25f5409a27239.avu5qh0uidcw0qr7v9nyu7h5w.rcgu.o:(.text._ZN81_$LT$core..str..iter..Bytes$u20$as$u20$core..iter..traits..iterator..Iterator$GT$4next17hc74afc263c3001a6E)
         1000110          1000110        0     1                 .L0 
         1000110          1000110        0     1                 .L0 
         1000110          1000110        0     1                 $x
         1000110          1000110        0     1                 .L0 
         1000110          1000110       58     1                 _$LT$core..str..iter..Bytes$u20$as$u20$core..iter..traits..iterator..Iterator$GT$::next::hc74afc263c3001a6
         1000116          1000116        0     1                 .L0 
         1000118          1000118        0     1                 .L0 
         1000118          1000118        0     1                 .L0 
         1000122          1000122        0     1                 .L0 
         1000122          1000122        0     1                 .L0 
         1000124          1000124        0     1                 .L0 
         1000128          1000128        0     1                 .Lpcrel_hi0
         1000128          1000128        0     1                 .L0 
         1000144          1000144        0     1                 .L0 
         100014e          100014e        0     1                 .L0 
         100014e          100014e        0     1                 .L0 
         1000158          1000158        0     1                 .L0 
         100015a          100015a        0     1                 .L0 
         100015a          100015a        0     1                 .L0 
         1000164          1000164        0     1                 .L0 
         1000168          1000168        0     1                 .L0 
         1000168          1000168        0     1                 .L0 
         1000168          1000168        0     1                 .L0 
         1000168          1000168        8     2         /home/ryoj/github.com/okamotonr/mios/target/riscv64gc-unknown-none-elf/debug/deps/user-bdd25f5409a27239.f1b0ip2wsispgabyyqta4gta5.rcgu.o:(.text.rust_begin_unwind)
         1000168          1000168        0     1                 .L0 
         1000168          1000168        0     1                 .L0 
         1000168          1000168        0     1                 $x
         1000168          1000168        0     1                 .L0 
         1000168          1000168        8     1                 rust_begin_unwind
         100016c          100016c        0     1                 .L0 
         1000170          1000170        0     1                 .L0 
         1000170          1000170        0     1                 .L0 
         1000170          1000170        0     1                 .L0 
         1000170          1000170       2a     2         /home/ryoj/github.com/okamotonr/mios/target/riscv64gc-unknown-none-elf/debug/deps/user-bdd25f5409a27239.f1b0ip2wsispgabyyqta4gta5.rcgu.o:(.text.exit)
         1000170          1000170        0     1                 .L0 
         1000170          1000170        0     1                 .L0 
         1000170          1000170        0     1                 $x
         1000170          1000170        0     1                 .L0 
         1000170          1000170       2a     1                 exit
         1000174          1000174        0     1                 .Lpcrel_hi1
         1000174          1000174        0     1                 .L0 
         100018a          100018a        0     1                 .Lpcrel_hi2
         100019a          100019a        0     1                 .L0 
         100019a          100019a       2c     2         /home/ryoj/github.com/okamotonr/mios/target/riscv64gc-unknown-none-elf/debug/deps/libcommon-6670c06b0eba65ae.rlib(common-6670c06b0eba65ae.862cj2evwqnh2q0qnqplh6cmb.rcgu.o):(.text._ZN4core3fmt9Arguments9new_const17h96d8ebc6c3621359E)
         100019a          100019a        0     1                 .L0 
         100019a          100019a        0     1                 .L0 
         100019a          100019a        0     1                 $x
         100019a          100019a        0     1                 .L0 
         100019a          100019a       2c     1                 core::fmt::Arguments::new_const::h96d8ebc6c3621359
         10001a4          10001a4        0     1                 .L0 
         10001aa          10001aa        0     1                 .Lpcrel_hi0
         10001c2          10001c2        0     1                 .L0 
         10001c6          10001c6        0     1                 .L0 
         10001c6          10001c6       2a     2         /home/ryoj/github.com/okamotonr/mios/target/riscv64gc-unknown-none-elf/debug/deps/libcommon-6670c06b0eba65ae.rlib(common-6670c06b0eba65ae.cm56sc12mw764cxukg35414d2.rcgu.o):(.text.syscall)
         10001c6          10001c6        0     1                 .L0 
         10001c6          10001c6        0     1                 .L0 
         10001c6          10001c6        0     1                 $x
         10001c6          10001c6        0     1                 .L0 
         10001c6          10001c6       2a     1                 syscall
         10001e2          10001e2        0     1                 .L0 
         10001e2          10001e2        0     1                 .L0 
         10001e4          10001e4        0     1                 .L0 
         10001ea          10001ea        0     1                 .L0 
         10001ec          10001ec        0     1                 .L0 
         10001f0          10001f0        0     1                 .L0 
         10001f0          10001f0       22     2         /home/ryoj/github.com/okamotonr/mios/target/riscv64gc-unknown-none-elf/debug/deps/libcommon-6670c06b0eba65ae.rlib(common-6670c06b0eba65ae.cm56sc12mw764cxukg35414d2.rcgu.o):(.text.put_char)
         10001f0          10001f0        0     1                 .L0 
         10001f0          10001f0        0     1                 .L0 
         10001f0          10001f0        0     1                 $x
         10001f0          10001f0        0     1                 .L0 
         10001f0          10001f0       22     1                 put_char
         10001f8          10001f8        0     1                 .L0 
         10001fa          10001fa        0     1                 .L0 
         1000200          1000200        0     1                 .L0 
         100020e          100020e        0     1                 .L0 
         1000212          1000212        0     1                 .L0 
         1000212          1000212       22     2         /home/ryoj/.rustup/toolchains/nightly-x86_64-unknown-linux-gnu/lib/rustlib/riscv64gc-unknown-none-elf/lib/libcore-b7430222903c4bab.rlib(core-b7430222903c4bab.core.a2a72e99e9cef565-cgu.0.rcgu.o):(.text.unlikely._ZN4core9panicking9panic_fmt17h98034f04c40e2b7bE)
         1000212          1000212        0     1                 .L0 
         1000212          1000212        0     1                 .L0 
         1000212          1000212        0     1                 $x
         1000212          1000212        0     1                 .L0 
         1000212          1000212       22     1                 core::panicking::panic_fmt::h98034f04c40e2b7b
         100021a          100021a        0     1                 .L0 
         100021a          100021a        0     1                 .L0 
         1000228          1000228        0     1                 .L0 
         1000234          1000234        0     1                 .L0 
         1001000          1001000       60  4096 .rodata
         1001000          1001000        6     1         /home/ryoj/github.com/okamotonr/mios/target/riscv64gc-unknown-none-elf/debug/deps/user-bdd25f5409a27239.9bzuzcpitrenldo4mka73e51c.rcgu.o:(.rodata..L__unnamed_1)
         1001000          1001000        6     1                 .L__unnamed_1
         1001000          1001000        0     1                 $d
         1001006          1001006        2     1         /home/ryoj/github.com/okamotonr/mios/target/riscv64gc-unknown-none-elf/debug/deps/user-bdd25f5409a27239.avu5qh0uidcw0qr7v9nyu7h5w.rcgu.o:(.rodata..L__unnamed_1)
         1001006          1001006        2     1                 .L__unnamed_1
         1001006          1001006        0     1                 $d
         1001008          1001008        4     1         <internal>:(.rodata.cst4)
         1001010          1001010       10     8         /home/ryoj/github.com/okamotonr/mios/target/riscv64gc-unknown-none-elf/debug/deps/user-bdd25f5409a27239.f1b0ip2wsispgabyyqta4gta5.rcgu.o:(.rodata..L__unnamed_1)
         1001010          1001010       10     1                 .L__unnamed_1
         1001010          1001010        0     1                 $d
         1001020          1001020       20     8         <internal>:(.rodata.cst16)
         1001040          1001040       18     8         /home/ryoj/github.com/okamotonr/mios/target/riscv64gc-unknown-none-elf/debug/deps/user-bdd25f5409a27239.f1b0ip2wsispgabyyqta4gta5.rcgu.o:(.rodata..L__unnamed_2)
         1001040          1001040       18     1                 .L__unnamed_2
         1001040          1001040        0     1                 $d
         1001058          1001058        8     1         . = ALIGN ( 16 )
         1001060          1001060       38     8 .eh_frame
         1001060          1001060       14     1         /home/ryoj/.rustup/toolchains/nightly-x86_64-unknown-linux-gnu/lib/rustlib/riscv64gc-unknown-none-elf/lib/libcore-b7430222903c4bab.rlib(core-b7430222903c4bab.core.a2a72e99e9cef565-cgu.0.rcgu.o):(.eh_frame+0x0)
         1001074          1001074       20     1         /home/ryoj/.rustup/toolchains/nightly-x86_64-unknown-linux-gnu/lib/rustlib/riscv64gc-unknown-none-elf/lib/libcore-b7430222903c4bab.rlib(core-b7430222903c4bab.core.a2a72e99e9cef565-cgu.0.rcgu.o):(.eh_frame+0x1080)
         1002000          1002000    10000  4096 .bss
         1002000          1002000        0     1         . = ALIGN ( 16 )
         1002000          1002000        0     1         . = ALIGN ( 16 )
         1002000          1002000    10000     1         . += 64 * 1024
         1012000          1012000        0     1         __stack_top = .
         1012000          1012000        0     1         
               0                0     1007     1 .debug_abbrev
               0                0      14e     1         /home/ryoj/github.com/okamotonr/mios/target/riscv64gc-unknown-none-elf/debug/deps/user-bdd25f5409a27239.0xneceyl6by6oi29e45jffuzg.rcgu.o:(.debug_abbrev)
               0                0        0     1                 $d
             14e              14e       7c     1         /home/ryoj/github.com/okamotonr/mios/target/riscv64gc-unknown-none-elf/debug/deps/user-bdd25f5409a27239.1mb3uunhncphz5ab99i3emowg.rcgu.o:(.debug_abbrev)
             14e              14e        0     1                 $d
             1ca              1ca      1b2     1         /home/ryoj/github.com/okamotonr/mios/target/riscv64gc-unknown-none-elf/debug/deps/user-bdd25f5409a27239.2w3ubjqeucrdxmjkruzll16uf.rcgu.o:(.debug_abbrev)
             1ca              1ca        0     1                 $d
             37c              37c       bf     1         /home/ryoj/github.com/okamotonr/mios/target/riscv64gc-unknown-none-elf/debug/deps/user-bdd25f5409a27239.9bzuzcpitrenldo4mka73e51c.rcgu.o:(.debug_abbrev)
             37c              37c        0     1                 $d
             43b              43b      146     1         /home/ryoj/github.com/okamotonr/mios/target/riscv64gc-unknown-none-elf/debug/deps/user-bdd25f5409a27239.avu5qh0uidcw0qr7v9nyu7h5w.rcgu.o:(.debug_abbrev)
             43b              43b        0     1                 $d
             581              581      148     1         /home/ryoj/github.com/okamotonr/mios/target/riscv64gc-unknown-none-elf/debug/deps/user-bdd25f5409a27239.f1b0ip2wsispgabyyqta4gta5.rcgu.o:(.debug_abbrev)
             581              581        0     1                 $d
             6c9              6c9      127     1         /home/ryoj/github.com/okamotonr/mios/target/riscv64gc-unknown-none-elf/debug/deps/libcommon-6670c06b0eba65ae.rlib(common-6670c06b0eba65ae.862cj2evwqnh2q0qnqplh6cmb.rcgu.o):(.debug_abbrev)
             6c9              6c9        0     1                 $d
             7f0              7f0       91     1         /home/ryoj/github.com/okamotonr/mios/target/riscv64gc-unknown-none-elf/debug/deps/libcommon-6670c06b0eba65ae.rlib(common-6670c06b0eba65ae.cm56sc12mw764cxukg35414d2.rcgu.o):(.debug_abbrev)
             7f0              7f0        0     1                 $d
             881              881      2e9     1         /home/ryoj/.rustup/toolchains/nightly-x86_64-unknown-linux-gnu/lib/rustlib/riscv64gc-unknown-none-elf/lib/libcore-b7430222903c4bab.rlib(core-b7430222903c4bab.core.a2a72e99e9cef565-cgu.0.rcgu.o):(.debug_abbrev)
             881              881        0     1                 $d
             b6a              b6a       e5     1         /home/ryoj/.rustup/toolchains/nightly-x86_64-unknown-linux-gnu/lib/rustlib/riscv64gc-unknown-none-elf/lib/libcompiler_builtins-12400e53a9c73834.rlib(compiler_builtins-12400e53a9c73834.compiler_builtins.98b006b987cce0b9-cgu.133.rcgu.o):(.debug_abbrev)
             b6a              b6a        0     1                 $d
             c4f              c4f       5f     1         /home/ryoj/.rustup/toolchains/nightly-x86_64-unknown-linux-gnu/lib/rustlib/riscv64gc-unknown-none-elf/lib/libcompiler_builtins-12400e53a9c73834.rlib(compiler_builtins-12400e53a9c73834.compiler_builtins.98b006b987cce0b9-cgu.198.rcgu.o):(.debug_abbrev)
             c4f              c4f        0     1                 $d
             cae              cae      118     1         /home/ryoj/.rustup/toolchains/nightly-x86_64-unknown-linux-gnu/lib/rustlib/riscv64gc-unknown-none-elf/lib/libcompiler_builtins-12400e53a9c73834.rlib(compiler_builtins-12400e53a9c73834.compiler_builtins.98b006b987cce0b9-cgu.010.rcgu.o):(.debug_abbrev)
             cae              cae        0     1                 $d
             dc6              dc6       bd     1         /home/ryoj/.rustup/toolchains/nightly-x86_64-unknown-linux-gnu/lib/rustlib/riscv64gc-unknown-none-elf/lib/libcompiler_builtins-12400e53a9c73834.rlib(compiler_builtins-12400e53a9c73834.compiler_builtins.98b006b987cce0b9-cgu.219.rcgu.o):(.debug_abbrev)
             dc6              dc6        0     1                 $d
             e83              e83      109     1         /home/ryoj/.rustup/toolchains/nightly-x86_64-unknown-linux-gnu/lib/rustlib/riscv64gc-unknown-none-elf/lib/libcompiler_builtins-12400e53a9c73834.rlib(compiler_builtins-12400e53a9c73834.compiler_builtins.98b006b987cce0b9-cgu.241.rcgu.o):(.debug_abbrev)
             e83              e83        0     1                 $d
             f8c              f8c       7b     1         /home/ryoj/.rustup/toolchains/nightly-x86_64-unknown-linux-gnu/lib/rustlib/riscv64gc-unknown-none-elf/lib/libcompiler_builtins-12400e53a9c73834.rlib(compiler_builtins-12400e53a9c73834.compiler_builtins.98b006b987cce0b9-cgu.303.rcgu.o):(.debug_abbrev)
             f8c              f8c        0     1                 $d
               0                0    24663     1 .debug_info
               0                0      503     1         /home/ryoj/github.com/okamotonr/mios/target/riscv64gc-unknown-none-elf/debug/deps/user-bdd25f5409a27239.0xneceyl6by6oi29e45jffuzg.rcgu.o:(.debug_info)
               0                0        0     1                 .L0 
               0                0        0     1                 $d
             503              503      170     1         /home/ryoj/github.com/okamotonr/mios/target/riscv64gc-unknown-none-elf/debug/deps/user-bdd25f5409a27239.1mb3uunhncphz5ab99i3emowg.rcgu.o:(.debug_info)
             503              503        0     1                 .L0 
             503              503        0     1                 $d
             673              673      4de     1         /home/ryoj/github.com/okamotonr/mios/target/riscv64gc-unknown-none-elf/debug/deps/user-bdd25f5409a27239.2w3ubjqeucrdxmjkruzll16uf.rcgu.o:(.debug_info)
             673              673        0     1                 .L0 
             673              673        0     1                 $d
             b51              b51      1c5     1         /home/ryoj/github.com/okamotonr/mios/target/riscv64gc-unknown-none-elf/debug/deps/user-bdd25f5409a27239.9bzuzcpitrenldo4mka73e51c.rcgu.o:(.debug_info)
             b51              b51        0     1                 .L0 
             b51              b51        0     1                 $d
             d16              d16      313     1         /home/ryoj/github.com/okamotonr/mios/target/riscv64gc-unknown-none-elf/debug/deps/user-bdd25f5409a27239.avu5qh0uidcw0qr7v9nyu7h5w.rcgu.o:(.debug_info)
             d16              d16        0     1                 .L0 
             d16              d16        0     1                 $d
            1029             1029      61a     1         /home/ryoj/github.com/okamotonr/mios/target/riscv64gc-unknown-none-elf/debug/deps/user-bdd25f5409a27239.f1b0ip2wsispgabyyqta4gta5.rcgu.o:(.debug_info)
            1029             1029        0     1                 .L0 
            1029             1029        0     1                 $d
            1643             1643      56f     1         /home/ryoj/github.com/okamotonr/mios/target/riscv64gc-unknown-none-elf/debug/deps/libcommon-6670c06b0eba65ae.rlib(common-6670c06b0eba65ae.862cj2evwqnh2q0qnqplh6cmb.rcgu.o):(.debug_info)
            1643             1643        0     1                 .L0 
            1643             1643        0     1                 $d
            1bb2             1bb2       f2     1         /home/ryoj/github.com/okamotonr/mios/target/riscv64gc-unknown-none-elf/debug/deps/libcommon-6670c06b0eba65ae.rlib(common-6670c06b0eba65ae.cm56sc12mw764cxukg35414d2.rcgu.o):(.debug_info)
            1bb2             1bb2        0     1                 .L0 
            1bb2             1bb2        0     1                 $d
            1ca4             1ca4    21957     1         /home/ryoj/.rustup/toolchains/nightly-x86_64-unknown-linux-gnu/lib/rustlib/riscv64gc-unknown-none-elf/lib/libcore-b7430222903c4bab.rlib(core-b7430222903c4bab.core.a2a72e99e9cef565-cgu.0.rcgu.o):(.debug_info)
            1ca4             1ca4        0     1                 .L0 
            1ca4             1ca4        0     1                 $d
           235fb            235fb      414     1         /home/ryoj/.rustup/toolchains/nightly-x86_64-unknown-linux-gnu/lib/rustlib/riscv64gc-unknown-none-elf/lib/libcompiler_builtins-12400e53a9c73834.rlib(compiler_builtins-12400e53a9c73834.compiler_builtins.98b006b987cce0b9-cgu.133.rcgu.o):(.debug_info)
           235fb            235fb        0     1                 .L0 
           235fb            235fb        0     1                 $d
           23a0f            23a0f       ad     1         /home/ryoj/.rustup/toolchains/nightly-x86_64-unknown-linux-gnu/lib/rustlib/riscv64gc-unknown-none-elf/lib/libcompiler_builtins-12400e53a9c73834.rlib(compiler_builtins-12400e53a9c73834.compiler_builtins.98b006b987cce0b9-cgu.198.rcgu.o):(.debug_info)
           23a0f            23a0f        0     1                 .L0 
           23a0f            23a0f        0     1                 $d
           23abc            23abc      575     1         /home/ryoj/.rustup/toolchains/nightly-x86_64-unknown-linux-gnu/lib/rustlib/riscv64gc-unknown-none-elf/lib/libcompiler_builtins-12400e53a9c73834.rlib(compiler_builtins-12400e53a9c73834.compiler_builtins.98b006b987cce0b9-cgu.010.rcgu.o):(.debug_info)
           23abc            23abc        0     1                 .L0 
           23abc            23abc        0     1                 $d
           24031            24031      295     1         /home/ryoj/.rustup/toolchains/nightly-x86_64-unknown-linux-gnu/lib/rustlib/riscv64gc-unknown-none-elf/lib/libcompiler_builtins-12400e53a9c73834.rlib(compiler_builtins-12400e53a9c73834.compiler_builtins.98b006b987cce0b9-cgu.219.rcgu.o):(.debug_info)
           24031            24031        0     1                 .L0 
           24031            24031        0     1                 $d
           242c6            242c6      2e4     1         /home/ryoj/.rustup/toolchains/nightly-x86_64-unknown-linux-gnu/lib/rustlib/riscv64gc-unknown-none-elf/lib/libcompiler_builtins-12400e53a9c73834.rlib(compiler_builtins-12400e53a9c73834.compiler_builtins.98b006b987cce0b9-cgu.241.rcgu.o):(.debug_info)
           242c6            242c6        0     1                 .L0 
           242c6            242c6        0     1                 $d
           245aa            245aa       b9     1         /home/ryoj/.rustup/toolchains/nightly-x86_64-unknown-linux-gnu/lib/rustlib/riscv64gc-unknown-none-elf/lib/libcompiler_builtins-12400e53a9c73834.rlib(compiler_builtins-12400e53a9c73834.compiler_builtins.98b006b987cce0b9-cgu.303.rcgu.o):(.debug_info)
           245aa            245aa        0     1                 .L0 
           245aa            245aa        0     1                 $d
               0                0     1f80     1 .debug_aranges
               0                0       30     1         /home/ryoj/github.com/okamotonr/mios/target/riscv64gc-unknown-none-elf/debug/deps/user-bdd25f5409a27239.0xneceyl6by6oi29e45jffuzg.rcgu.o:(.debug_aranges)
               0                0        0     1                 $d
              30               30       30     1         /home/ryoj/github.com/okamotonr/mios/target/riscv64gc-unknown-none-elf/debug/deps/user-bdd25f5409a27239.1mb3uunhncphz5ab99i3emowg.rcgu.o:(.debug_aranges)
              30               30        0     1                 $d
              60               60       30     1         /home/ryoj/github.com/okamotonr/mios/target/riscv64gc-unknown-none-elf/debug/deps/user-bdd25f5409a27239.2w3ubjqeucrdxmjkruzll16uf.rcgu.o:(.debug_aranges)
              60               60        0     1                 $d
              90               90       30     1         /home/ryoj/github.com/okamotonr/mios/target/riscv64gc-unknown-none-elf/debug/deps/user-bdd25f5409a27239.9bzuzcpitrenldo4mka73e51c.rcgu.o:(.debug_aranges)
              90               90        0     1                 $d
              c0               c0       30     1         /home/ryoj/github.com/okamotonr/mios/target/riscv64gc-unknown-none-elf/debug/deps/user-bdd25f5409a27239.avu5qh0uidcw0qr7v9nyu7h5w.rcgu.o:(.debug_aranges)
              c0               c0        0     1                 $d
              f0               f0       50     1         /home/ryoj/github.com/okamotonr/mios/target/riscv64gc-unknown-none-elf/debug/deps/user-bdd25f5409a27239.f1b0ip2wsispgabyyqta4gta5.rcgu.o:(.debug_aranges)
              f0               f0        0     1                 $d
             140              140       30     1         /home/ryoj/github.com/okamotonr/mios/target/riscv64gc-unknown-none-elf/debug/deps/libcommon-6670c06b0eba65ae.rlib(common-6670c06b0eba65ae.862cj2evwqnh2q0qnqplh6cmb.rcgu.o):(.debug_aranges)
             140              140        0     1                 $d
             170              170       40     1         /home/ryoj/github.com/okamotonr/mios/target/riscv64gc-unknown-none-elf/debug/deps/libcommon-6670c06b0eba65ae.rlib(common-6670c06b0eba65ae.cm56sc12mw764cxukg35414d2.rcgu.o):(.debug_aranges)
             170              170        0     1                 $d
             1b0              1b0     1c90     1         /home/ryoj/.rustup/toolchains/nightly-x86_64-unknown-linux-gnu/lib/rustlib/riscv64gc-unknown-none-elf/lib/libcore-b7430222903c4bab.rlib(core-b7430222903c4bab.core.a2a72e99e9cef565-cgu.0.rcgu.o):(.debug_aranges)
             1b0              1b0        0     1                 $d
            1e40             1e40       30     1         /home/ryoj/.rustup/toolchains/nightly-x86_64-unknown-linux-gnu/lib/rustlib/riscv64gc-unknown-none-elf/lib/libcompiler_builtins-12400e53a9c73834.rlib(compiler_builtins-12400e53a9c73834.compiler_builtins.98b006b987cce0b9-cgu.133.rcgu.o):(.debug_aranges)
            1e40             1e40        0     1                 $d
            1e70             1e70       30     1         /home/ryoj/.rustup/toolchains/nightly-x86_64-unknown-linux-gnu/lib/rustlib/riscv64gc-unknown-none-elf/lib/libcompiler_builtins-12400e53a9c73834.rlib(compiler_builtins-12400e53a9c73834.compiler_builtins.98b006b987cce0b9-cgu.198.rcgu.o):(.debug_aranges)
            1e70             1e70        0     1                 $d
            1ea0             1ea0       50     1         /home/ryoj/.rustup/toolchains/nightly-x86_64-unknown-linux-gnu/lib/rustlib/riscv64gc-unknown-none-elf/lib/libcompiler_builtins-12400e53a9c73834.rlib(compiler_builtins-12400e53a9c73834.compiler_builtins.98b006b987cce0b9-cgu.010.rcgu.o):(.debug_aranges)
            1ea0             1ea0        0     1                 $d
            1ef0             1ef0       30     1         /home/ryoj/.rustup/toolchains/nightly-x86_64-unknown-linux-gnu/lib/rustlib/riscv64gc-unknown-none-elf/lib/libcompiler_builtins-12400e53a9c73834.rlib(compiler_builtins-12400e53a9c73834.compiler_builtins.98b006b987cce0b9-cgu.219.rcgu.o):(.debug_aranges)
            1ef0             1ef0        0     1                 $d
            1f20             1f20       30     1         /home/ryoj/.rustup/toolchains/nightly-x86_64-unknown-linux-gnu/lib/rustlib/riscv64gc-unknown-none-elf/lib/libcompiler_builtins-12400e53a9c73834.rlib(compiler_builtins-12400e53a9c73834.compiler_builtins.98b006b987cce0b9-cgu.241.rcgu.o):(.debug_aranges)
            1f20             1f20        0     1                 $d
            1f50             1f50       30     1         /home/ryoj/.rustup/toolchains/nightly-x86_64-unknown-linux-gnu/lib/rustlib/riscv64gc-unknown-none-elf/lib/libcompiler_builtins-12400e53a9c73834.rlib(compiler_builtins-12400e53a9c73834.compiler_builtins.98b006b987cce0b9-cgu.303.rcgu.o):(.debug_aranges)
            1f50             1f50        0     1                 $d
               0                0    384c3     1 .debug_str
               0                0    384c3     1         <internal>:(.debug_str)
               0                0       93     1 .comment
               0                0       93     1         <internal>:(.comment)
               0                0       47     1 .riscv.attributes
               0                0       47     1         <internal>:(.riscv.attributes)
               0                0      218     8 .debug_frame
               0                0       38     8         /home/ryoj/github.com/okamotonr/mios/target/riscv64gc-unknown-none-elf/debug/deps/user-bdd25f5409a27239.0xneceyl6by6oi29e45jffuzg.rcgu.o:(.debug_frame)
               0                0        0     1                 .L0 
               0                0        0     1                 $d
              38               38       38     8         /home/ryoj/github.com/okamotonr/mios/target/riscv64gc-unknown-none-elf/debug/deps/user-bdd25f5409a27239.1mb3uunhncphz5ab99i3emowg.rcgu.o:(.debug_frame)
              38               38        0     1                 .L0 
              38               38        0     1                 $d
              70               70       38     8         /home/ryoj/github.com/okamotonr/mios/target/riscv64gc-unknown-none-elf/debug/deps/user-bdd25f5409a27239.2w3ubjqeucrdxmjkruzll16uf.rcgu.o:(.debug_frame)
              70               70        0     1                 .L0 
              70               70        0     1                 $d
              a8               a8       38     8         /home/ryoj/github.com/okamotonr/mios/target/riscv64gc-unknown-none-elf/debug/deps/user-bdd25f5409a27239.9bzuzcpitrenldo4mka73e51c.rcgu.o:(.debug_frame)
              a8               a8        0     1                 .L0 
              a8               a8        0     1                 $d
              e0               e0       38     8         /home/ryoj/github.com/okamotonr/mios/target/riscv64gc-unknown-none-elf/debug/deps/user-bdd25f5409a27239.avu5qh0uidcw0qr7v9nyu7h5w.rcgu.o:(.debug_frame)
              e0               e0        0     1                 .L0 
              e0               e0        0     1                 $d
             118              118       70     8         /home/ryoj/github.com/okamotonr/mios/target/riscv64gc-unknown-none-elf/debug/deps/user-bdd25f5409a27239.f1b0ip2wsispgabyyqta4gta5.rcgu.o:(.debug_frame)
             118              118        0     1                 .L0 
             118              118        0     1                 $d
             188              188       38     8         /home/ryoj/github.com/okamotonr/mios/target/riscv64gc-unknown-none-elf/debug/deps/libcommon-6670c06b0eba65ae.rlib(common-6670c06b0eba65ae.862cj2evwqnh2q0qnqplh6cmb.rcgu.o):(.debug_frame)
             188              188        0     1                 .L0 
             188              188        0     1                 $d
             1c0              1c0       58     8         /home/ryoj/github.com/okamotonr/mios/target/riscv64gc-unknown-none-elf/debug/deps/libcommon-6670c06b0eba65ae.rlib(common-6670c06b0eba65ae.cm56sc12mw764cxukg35414d2.rcgu.o):(.debug_frame)
             1c0              1c0        0     1                 .L0 
             1c0              1c0        0     1                 $d
               0                0    1fdce     1 .debug_line
               0                0      206     1         /home/ryoj/github.com/okamotonr/mios/target/riscv64gc-unknown-none-elf/debug/deps/user-bdd25f5409a27239.0xneceyl6by6oi29e45jffuzg.rcgu.o:(.debug_line)
               0                0        0     1                 .Lline_table_start0
               0                0        0     1                 $d
             206              206       bc     1         /home/ryoj/github.com/okamotonr/mios/target/riscv64gc-unknown-none-elf/debug/deps/user-bdd25f5409a27239.1mb3uunhncphz5ab99i3emowg.rcgu.o:(.debug_line)
             206              206        0     1                 .Lline_table_start0
             206              206        0     1                 $d
             2c2              2c2      261     1         /home/ryoj/github.com/okamotonr/mios/target/riscv64gc-unknown-none-elf/debug/deps/user-bdd25f5409a27239.2w3ubjqeucrdxmjkruzll16uf.rcgu.o:(.debug_line)
             2c2              2c2        0     1                 .Lline_table_start0
             2c2              2c2        0     1                 $d
             523              523       84     1         /home/ryoj/github.com/okamotonr/mios/target/riscv64gc-unknown-none-elf/debug/deps/user-bdd25f5409a27239.9bzuzcpitrenldo4mka73e51c.rcgu.o:(.debug_line)
             523              523        0     1                 .Lline_table_start0
             523              523        0     1                 $d
             5a7              5a7      1f5     1         /home/ryoj/github.com/okamotonr/mios/target/riscv64gc-unknown-none-elf/debug/deps/user-bdd25f5409a27239.avu5qh0uidcw0qr7v9nyu7h5w.rcgu.o:(.debug_line)
             5a7              5a7        0     1                 .Lline_table_start0
             5a7              5a7        0     1                 $d
             79c              79c       83     1         /home/ryoj/github.com/okamotonr/mios/target/riscv64gc-unknown-none-elf/debug/deps/user-bdd25f5409a27239.f1b0ip2wsispgabyyqta4gta5.rcgu.o:(.debug_line)
             79c              79c        0     1                 .Lline_table_start0
             79c              79c        0     1                 $d
             81f              81f       b8     1         /home/ryoj/github.com/okamotonr/mios/target/riscv64gc-unknown-none-elf/debug/deps/libcommon-6670c06b0eba65ae.rlib(common-6670c06b0eba65ae.862cj2evwqnh2q0qnqplh6cmb.rcgu.o):(.debug_line)
             81f              81f        0     1                 .Lline_table_start0
             81f              81f        0     1                 $d
             8d7              8d7       9f     1         /home/ryoj/github.com/okamotonr/mios/target/riscv64gc-unknown-none-elf/debug/deps/libcommon-6670c06b0eba65ae.rlib(common-6670c06b0eba65ae.cm56sc12mw764cxukg35414d2.rcgu.o):(.debug_line)
             8d7              8d7        0     1                 .Lline_table_start0
             8d7              8d7        0     1                 $d
             976              976    1def5     1         /home/ryoj/.rustup/toolchains/nightly-x86_64-unknown-linux-gnu/lib/rustlib/riscv64gc-unknown-none-elf/lib/libcore-b7430222903c4bab.rlib(core-b7430222903c4bab.core.a2a72e99e9cef565-cgu.0.rcgu.o):(.debug_line)
             976              976        0     1                 .Lline_table_start0
             976              976        0     1                 $d
           1e86b            1e86b      4ad     1         /home/ryoj/.rustup/toolchains/nightly-x86_64-unknown-linux-gnu/lib/rustlib/riscv64gc-unknown-none-elf/lib/libcompiler_builtins-12400e53a9c73834.rlib(compiler_builtins-12400e53a9c73834.compiler_builtins.98b006b987cce0b9-cgu.133.rcgu.o):(.debug_line)
           1e86b            1e86b        0     1                 .Lline_table_start0
           1e86b            1e86b        0     1                 $d
           1ebc5            1ebc5        0     1                 .Lline_table_start1
           1ed18            1ed18       9e     1         /home/ryoj/.rustup/toolchains/nightly-x86_64-unknown-linux-gnu/lib/rustlib/riscv64gc-unknown-none-elf/lib/libcompiler_builtins-12400e53a9c73834.rlib(compiler_builtins-12400e53a9c73834.compiler_builtins.98b006b987cce0b9-cgu.198.rcgu.o):(.debug_line)
           1ed18            1ed18        0     1                 .Lline_table_start0
           1ed18            1ed18        0     1                 $d
           1ed87            1ed87        0     1                 .Lline_table_start1
           1edb6            1edb6      8dc     1         /home/ryoj/.rustup/toolchains/nightly-x86_64-unknown-linux-gnu/lib/rustlib/riscv64gc-unknown-none-elf/lib/libcompiler_builtins-12400e53a9c73834.rlib(compiler_builtins-12400e53a9c73834.compiler_builtins.98b006b987cce0b9-cgu.010.rcgu.o):(.debug_line)
           1edb6            1edb6        0     1                 .Lline_table_start0
           1edb6            1edb6        0     1                 $d
           1f692            1f692      287     1         /home/ryoj/.rustup/toolchains/nightly-x86_64-unknown-linux-gnu/lib/rustlib/riscv64gc-unknown-none-elf/lib/libcompiler_builtins-12400e53a9c73834.rlib(compiler_builtins-12400e53a9c73834.compiler_builtins.98b006b987cce0b9-cgu.219.rcgu.o):(.debug_line)
           1f692            1f692        0     1                 .Lline_table_start0
           1f692            1f692        0     1                 $d
           1f877            1f877        0     1                 .Lline_table_start1
           1f919            1f919      3b5     1         /home/ryoj/.rustup/toolchains/nightly-x86_64-unknown-linux-gnu/lib/rustlib/riscv64gc-unknown-none-elf/lib/libcompiler_builtins-12400e53a9c73834.rlib(compiler_builtins-12400e53a9c73834.compiler_builtins.98b006b987cce0b9-cgu.241.rcgu.o):(.debug_line)
           1f919            1f919        0     1                 .Lline_table_start0
           1f919            1f919        0     1                 $d
           1fb8b            1fb8b        0     1                 .Lline_table_start1
           1fcce            1fcce      100     1         /home/ryoj/.rustup/toolchains/nightly-x86_64-unknown-linux-gnu/lib/rustlib/riscv64gc-unknown-none-elf/lib/libcompiler_builtins-12400e53a9c73834.rlib(compiler_builtins-12400e53a9c73834.compiler_builtins.98b006b987cce0b9-cgu.303.rcgu.o):(.debug_line)
           1fcce            1fcce        0     1                 .Lline_table_start0
           1fcce            1fcce        0     1                 $d
           1fd8b            1fd8b        0     1                 .Lline_table_start1
               0                0    19e30     1 .debug_ranges
               0                0      120     1         /home/ryoj/github.com/okamotonr/mios/target/riscv64gc-unknown-none-elf/debug/deps/user-bdd25f5409a27239.2w3ubjqeucrdxmjkruzll16uf.rcgu.o:(.debug_ranges)
               0                0        0     1                 .L0 
               0                0        0     1                 $d
              40               40        0     1                 .L0 
              80               80        0     1                 .L0 
              c0               c0        0     1                 .L0 
              f0               f0        0     1                 .L0 
             120              120       30     1         /home/ryoj/github.com/okamotonr/mios/target/riscv64gc-unknown-none-elf/debug/deps/user-bdd25f5409a27239.9bzuzcpitrenldo4mka73e51c.rcgu.o:(.debug_ranges)
             120              120        0     1                 .L0 
             120              120        0     1                 $d
             150              150       40     1         /home/ryoj/github.com/okamotonr/mios/target/riscv64gc-unknown-none-elf/debug/deps/user-bdd25f5409a27239.f1b0ip2wsispgabyyqta4gta5.rcgu.o:(.debug_ranges)
             150              150        0     1                 .L0 
             150              150        0     1                 $d
             190              190       30     1         /home/ryoj/github.com/okamotonr/mios/target/riscv64gc-unknown-none-elf/debug/deps/libcommon-6670c06b0eba65ae.rlib(common-6670c06b0eba65ae.cm56sc12mw764cxukg35414d2.rcgu.o):(.debug_ranges)
             190              190        0     1                 .L0 
             190              190        0     1                 $d
             1c0              1c0    197c0     1         /home/ryoj/.rustup/toolchains/nightly-x86_64-unknown-linux-gnu/lib/rustlib/riscv64gc-unknown-none-elf/lib/libcore-b7430222903c4bab.rlib(core-b7430222903c4bab.core.a2a72e99e9cef565-cgu.0.rcgu.o):(.debug_ranges)
             1c0              1c0        0     1                 .L0 
             1c0              1c0        0     1                 $d
             200              200        0     1                 .L0 
             230              230        0     1                 .L0 
             260              260        0     1                 .L0 
             290              290        0     1                 .L0 
             2d0              2d0        0     1                 .L0 
             300              300        0     1                 .L0 
             330              330        0     1                 .L0 
             360              360        0     1                 .L0 
             390              390        0     1                 .L0 
             3c0              3c0        0     1                 .L0 
             3f0              3f0        0     1                 .L0 
             420              420        0     1                 .L0 
             450              450        0     1                 .L0 
             480              480        0     1                 .L0 
             4b0              4b0        0     1                 .L0 
             4e0              4e0        0     1                 .L0 
             510              510        0     1                 .L0 
             540              540        0     1                 .L0 
             570              570        0     1                 .L0 
             5a0              5a0        0     1                 .L0 
             5d0              5d0        0     1                 .L0 
             600              600        0     1                 .L0 
             650              650        0     1                 .L0 
             680              680        0     1                 .L0 
             6b0              6b0        0     1                 .L0 
             6e0              6e0        0     1                 .L0 
             720              720        0     1                 .L0 
             760              760        0     1                 .L0 
             790              790        0     1                 .L0 
             7c0              7c0        0     1                 .L0 
             7f0              7f0        0     1                 .L0 
             830              830        0     1                 .L0 
             870              870        0     1                 .L0 
             8a0              8a0        0     1                 .L0 
             8e0              8e0        0     1                 .L0 
             910              910        0     1                 .L0 
             950              950        0     1                 .L0 
             980              980        0     1                 .L0 
             9b0              9b0        0     1                 .L0 
             9e0              9e0        0     1                 .L0 
             a10              a10        0     1                 .L0 
             a50              a50        0     1                 .L0 
             a80              a80        0     1                 .L0 
             ac0              ac0        0     1                 .L0 
             af0              af0        0     1                 .L0 
             b20              b20        0     1                 .L0 
             b50              b50        0     1                 .L0 
             b80              b80        0     1                 .L0 
             bc0              bc0        0     1                 .L0 
             bf0              bf0        0     1                 .L0 
             c30              c30        0     1                 .L0 
             c60              c60        0     1                 .L0 
             ca0              ca0        0     1                 .L0 
             cf0              cf0        0     1                 .L0 
             d20              d20        0     1                 .L0 
             d80              d80        0     1                 .L0 
             db0              db0        0     1                 .L0 
             de0              de0        0     1                 .L0 
             e10              e10        0     1                 .L0 
             e40              e40        0     1                 .L0 
             e70              e70        0     1                 .L0 
             ea0              ea0        0     1                 .L0 
             ef0              ef0        0     1                 .L0 
             f20              f20        0     1                 .L0 
             f50              f50        0     1                 .L0 
             f80              f80        0     1                 .L0 
             fc0              fc0        0     1                 .L0 
            1000             1000        0     1                 .L0 
            1030             1030        0     1                 .L0 
            1080             1080        0     1                 .L0 
            10b0             10b0        0     1                 .L0 
            10e0             10e0        0     1                 .L0 
            1110             1110        0     1                 .L0 
            1140             1140        0     1                 .L0 
            1180             1180        0     1                 .L0 
            11b0             11b0        0     1                 .L0 
            11e0             11e0        0     1                 .L0 
            1220             1220        0     1                 .L0 
            1250             1250        0     1                 .L0 
            12a0             12a0        0     1                 .L0 
            12f0             12f0        0     1                 .L0 
            1340             1340        0     1                 .L0 
            1390             1390        0     1                 .L0 
            13c0             13c0        0     1                 .L0 
            13f0             13f0        0     1                 .L0 
            1420             1420        0     1                 .L0 
            1450             1450        0     1                 .L0 
            1480             1480        0     1                 .L0 
            14b0             14b0        0     1                 .L0 
            14e0             14e0        0     1                 .L0 
            1510             1510        0     1                 .L0 
            1540             1540        0     1                 .L0 
            1570             1570        0     1                 .L0 
            15a0             15a0        0     1                 .L0 
            15d0             15d0        0     1                 .L0 
            1600             1600        0     1                 .L0 
            1650             1650        0     1                 .L0 
            16a0             16a0        0     1                 .L0 
            16f0             16f0        0     1                 .L0 
            1720             1720        0     1                 .L0 
            1750             1750        0     1                 .L0 
            1780             1780        0     1                 .L0 
            17b0             17b0        0     1                 .L0 
            17e0             17e0        0     1                 .L0 
            1810             1810        0     1                 .L0 
            1840             1840        0     1                 .L0 
            1870             1870        0     1                 .L0 
            18a0             18a0        0     1                 .L0 
            18d0             18d0        0     1                 .L0 
            1900             1900        0     1                 .L0 
            1930             1930        0     1                 .L0 
            1960             1960        0     1                 .L0 
            19b0             19b0        0     1                 .L0 
            1a00             1a00        0     1                 .L0 
            1a50             1a50        0     1                 .L0 
            1a80             1a80        0     1                 .L0 
            1ab0             1ab0        0     1                 .L0 
            1ae0             1ae0        0     1                 .L0 
            1b10             1b10        0     1                 .L0 
            1b40             1b40        0     1                 .L0 
            1b70             1b70        0     1                 .L0 
            1ba0             1ba0        0     1                 .L0 
            1bd0             1bd0        0     1                 .L0 
            1c00             1c00        0     1                 .L0 
            1c30             1c30        0     1                 .L0 
            1c60             1c60        0     1                 .L0 
            1c90             1c90        0     1                 .L0 
            1cc0             1cc0        0     1                 .L0 
            1d10             1d10        0     1                 .L0 
            1d60             1d60        0     1                 .L0 
            1db0             1db0        0     1                 .L0 
            1de0             1de0        0     1                 .L0 
            1e10             1e10        0     1                 .L0 
            1e40             1e40        0     1                 .L0 
            1e70             1e70        0     1                 .L0 
            1ea0             1ea0        0     1                 .L0 
            1ed0             1ed0        0     1                 .L0 
            1f00             1f00        0     1                 .L0 
            1f30             1f30        0     1                 .L0 
            1f60             1f60        0     1                 .L0 
            1f90             1f90        0     1                 .L0 
            1fc0             1fc0        0     1                 .L0 
            1ff0             1ff0        0     1                 .L0 
            2020             2020        0     1                 .L0 
            2070             2070        0     1                 .L0 
            20a0             20a0        0     1                 .L0 
            20d0             20d0        0     1                 .L0 
            2100             2100        0     1                 .L0 
            2130             2130        0     1                 .L0 
            2160             2160        0     1                 .L0 
            21c0             21c0        0     1                 .L0 
            21f0             21f0        0     1                 .L0 
            2220             2220        0     1                 .L0 
            2250             2250        0     1                 .L0 
            2280             2280        0     1                 .L0 
            22b0             22b0        0     1                 .L0 
            22e0             22e0        0     1                 .L0 
            2320             2320        0     1                 .L0 
            2350             2350        0     1                 .L0 
            2380             2380        0     1                 .L0 
            23b0             23b0        0     1                 .L0 
            23e0             23e0        0     1                 .L0 
            2410             2410        0     1                 .L0 
            2440             2440        0     1                 .L0 
            2470             2470        0     1                 .L0 
            24b0             24b0        0     1                 .L0 
            24f0             24f0        0     1                 .L0 
            2520             2520        0     1                 .L0 
            2560             2560        0     1                 .L0 
            25b0             25b0        0     1                 .L0 
            25e0             25e0        0     1                 .L0 
            2610             2610        0     1                 .L0 
            2650             2650        0     1                 .L0 
            2680             2680        0     1                 .L0 
            26b0             26b0        0     1                 .L0 
            26f0             26f0        0     1                 .L0 
            2730             2730        0     1                 .L0 
            2760             2760        0     1                 .L0 
            2790             2790        0     1                 .L0 
            27c0             27c0        0     1                 .L0 
            27f0             27f0        0     1                 .L0 
            2820             2820        0     1                 .L0 
            2850             2850        0     1                 .L0 
            2880             2880        0     1                 .L0 
            28c0             28c0        0     1                 .L0 
            2900             2900        0     1                 .L0 
            2930             2930        0     1                 .L0 
            2960             2960        0     1                 .L0 
            2990             2990        0     1                 .L0 
            29c0             29c0        0     1                 .L0 
            29f0             29f0        0     1                 .L0 
            2a20             2a20        0     1                 .L0 
            2a60             2a60        0     1                 .L0 
            2aa0             2aa0        0     1                 .L0 
            2ae0             2ae0        0     1                 .L0 
            2b20             2b20        0     1                 .L0 
            2b60             2b60        0     1                 .L0 
            2ba0             2ba0        0     1                 .L0 
            2be0             2be0        0     1                 .L0 
            2c10             2c10        0     1                 .L0 
            2c40             2c40        0     1                 .L0 
            2c70             2c70        0     1                 .L0 
            2ca0             2ca0        0     1                 .L0 
            2cd0             2cd0        0     1                 .L0 
            2d00             2d00        0     1                 .L0 
            2d30             2d30        0     1                 .L0 
            2d60             2d60        0     1                 .L0 
            2d90             2d90        0     1                 .L0 
            2de0             2de0        0     1                 .L0 
            2e10             2e10        0     1                 .L0 
            2e40             2e40        0     1                 .L0 
            2e70             2e70        0     1                 .L0 
            2ea0             2ea0        0     1                 .L0 
            2ed0             2ed0        0     1                 .L0 
            2f00             2f00        0     1                 .L0 
            2f30             2f30        0     1                 .L0 
            2f60             2f60        0     1                 .L0 
            2f90             2f90        0     1                 .L0 
            2fd0             2fd0        0     1                 .L0 
            3010             3010        0     1                 .L0 
            3050             3050        0     1                 .L0 
            3080             3080        0     1                 .L0 
            30b0             30b0        0     1                 .L0 
            30e0             30e0        0     1                 .L0 
            3110             3110        0     1                 .L0 
            3150             3150        0     1                 .L0 
            3180             3180        0     1                 .L0 
            31c0             31c0        0     1                 .L0 
            31f0             31f0        0     1                 .L0 
            3230             3230        0     1                 .L0 
            3270             3270        0     1                 .L0 
            32b0             32b0        0     1                 .L0 
            32e0             32e0        0     1                 .L0 
            3310             3310        0     1                 .L0 
            3340             3340        0     1                 .L0 
            3370             3370        0     1                 .L0 
            33c0             33c0        0     1                 .L0 
            3410             3410        0     1                 .L0 
            3460             3460        0     1                 .L0 
            3490             3490        0     1                 .L0 
            34c0             34c0        0     1                 .L0 
            34f0             34f0        0     1                 .L0 
            3520             3520        0     1                 .L0 
            3550             3550        0     1                 .L0 
            3580             3580        0     1                 .L0 
            35b0             35b0        0     1                 .L0 
            35e0             35e0        0     1                 .L0 
            3610             3610        0     1                 .L0 
            3640             3640        0     1                 .L0 
            3670             3670        0     1                 .L0 
            36a0             36a0        0     1                 .L0 
            36d0             36d0        0     1                 .L0 
            3720             3720        0     1                 .L0 
            3770             3770        0     1                 .L0 
            37c0             37c0        0     1                 .L0 
            37f0             37f0        0     1                 .L0 
            3820             3820        0     1                 .L0 
            3850             3850        0     1                 .L0 
            3880             3880        0     1                 .L0 
            38b0             38b0        0     1                 .L0 
            38e0             38e0        0     1                 .L0 
            3910             3910        0     1                 .L0 
            3940             3940        0     1                 .L0 
            3970             3970        0     1                 .L0 
            39a0             39a0        0     1                 .L0 
            39d0             39d0        0     1                 .L0 
            3a00             3a00        0     1                 .L0 
            3a30             3a30        0     1                 .L0 
            3a80             3a80        0     1                 .L0 
            3ad0             3ad0        0     1                 .L0 
            3b20             3b20        0     1                 .L0 
            3b50             3b50        0     1                 .L0 
            3b80             3b80        0     1                 .L0 
            3bb0             3bb0        0     1                 .L0 
            3be0             3be0        0     1                 .L0 
            3c10             3c10        0     1                 .L0 
            3c40             3c40        0     1                 .L0 
            3c70             3c70        0     1                 .L0 
            3ca0             3ca0        0     1                 .L0 
            3cd0             3cd0        0     1                 .L0 
            3d00             3d00        0     1                 .L0 
            3d30             3d30        0     1                 .L0 
            3d60             3d60        0     1                 .L0 
            3d90             3d90        0     1                 .L0 
            3de0             3de0        0     1                 .L0 
            3e10             3e10        0     1                 .L0 
            3e40             3e40        0     1                 .L0 
            3e70             3e70        0     1                 .L0 
            3ea0             3ea0        0     1                 .L0 
            3ee0             3ee0        0     1                 .L0 
            3f10             3f10        0     1                 .L0 
            3f50             3f50        0     1                 .L0 
            3f90             3f90        0     1                 .L0 
            3fc0             3fc0        0     1                 .L0 
            4000             4000        0     1                 .L0 
            4040             4040        0     1                 .L0 
            4080             4080        0     1                 .L0 
            40b0             40b0        0     1                 .L0 
            40f0             40f0        0     1                 .L0 
            4120             4120        0     1                 .L0 
            4150             4150        0     1                 .L0 
            4180             4180        0     1                 .L0 
            41b0             41b0        0     1                 .L0 
            41e0             41e0        0     1                 .L0 
            4210             4210        0     1                 .L0 
            4240             4240        0     1                 .L0 
            4270             4270        0     1                 .L0 
            42a0             42a0        0     1                 .L0 
            42d0             42d0        0     1                 .L0 
            4300             4300        0     1                 .L0 
            4340             4340        0     1                 .L0 
            4370             4370        0     1                 .L0 
            43a0             43a0        0     1                 .L0 
            43d0             43d0        0     1                 .L0 
            4400             4400        0     1                 .L0 
            4440             4440        0     1                 .L0 
            4470             4470        0     1                 .L0 
            44b0             44b0        0     1                 .L0 
            44f0             44f0        0     1                 .L0 
            4520             4520        0     1                 .L0 
            4550             4550        0     1                 .L0 
            4580             4580        0     1                 .L0 
            45b0             45b0        0     1                 .L0 
            45e0             45e0        0     1                 .L0 
            4610             4610        0     1                 .L0 
            4640             4640        0     1                 .L0 
            4670             4670        0     1                 .L0 
            46a0             46a0        0     1                 .L0 
            46f0             46f0        0     1                 .L0 
            4720             4720        0     1                 .L0 
            4750             4750        0     1                 .L0 
            4780             4780        0     1                 .L0 
            47b0             47b0        0     1                 .L0 
            47e0             47e0        0     1                 .L0 
            4810             4810        0     1                 .L0 
            4840             4840        0     1                 .L0 
            4870             4870        0     1                 .L0 
            48a0             48a0        0     1                 .L0 
            48d0             48d0        0     1                 .L0 
            4900             4900        0     1                 .L0 
            4930             4930        0     1                 .L0 
            4960             4960        0     1                 .L0 
            49a0             49a0        0     1                 .L0 
            49d0             49d0        0     1                 .L0 
            4a00             4a00        0     1                 .L0 
            4a30             4a30        0     1                 .L0 
            4a60             4a60        0     1                 .L0 
            4a90             4a90        0     1                 .L0 
            4ac0             4ac0        0     1                 .L0 
            4af0             4af0        0     1                 .L0 
            4b20             4b20        0     1                 .L0 
            4b50             4b50        0     1                 .L0 
            4b80             4b80        0     1                 .L0 
            4bb0             4bb0        0     1                 .L0 
            4be0             4be0        0     1                 .L0 
            4c10             4c10        0     1                 .L0 
            4c50             4c50        0     1                 .L0 
            4c90             4c90        0     1                 .L0 
            4cc0             4cc0        0     1                 .L0 
            4cf0             4cf0        0     1                 .L0 
            4d20             4d20        0     1                 .L0 
            4d50             4d50        0     1                 .L0 
            4d80             4d80        0     1                 .L0 
            4db0             4db0        0     1                 .L0 
            4de0             4de0        0     1                 .L0 
            4e10             4e10        0     1                 .L0 
            4e50             4e50        0     1                 .L0 
            4e80             4e80        0     1                 .L0 
            4eb0             4eb0        0     1                 .L0 
            4ee0             4ee0        0     1                 .L0 
            4f20             4f20        0     1                 .L0 
            4f50             4f50        0     1                 .L0 
            4f80             4f80        0     1                 .L0 
            4fb0             4fb0        0     1                 .L0 
            4fe0             4fe0        0     1                 .L0 
            5010             5010        0     1                 .L0 
            5040             5040        0     1                 .L0 
            5070             5070        0     1                 .L0 
            50a0             50a0        0     1                 .L0 
            50d0             50d0        0     1                 .L0 
            5100             5100        0     1                 .L0 
            5130             5130        0     1                 .L0 
            5160             5160        0     1                 .L0 
            5190             5190        0     1                 .L0 
            51c0             51c0        0     1                 .L0 
            51f0             51f0        0     1                 .L0 
            5220             5220        0     1                 .L0 
            5250             5250        0     1                 .L0 
            5280             5280        0     1                 .L0 
            52b0             52b0        0     1                 .L0 
            52e0             52e0        0     1                 .L0 
            5310             5310        0     1                 .L0 
            5340             5340        0     1                 .L0 
            5370             5370        0     1                 .L0 
            53a0             53a0        0     1                 .L0 
            53d0             53d0        0     1                 .L0 
            5400             5400        0     1                 .L0 
            5430             5430        0     1                 .L0 
            5460             5460        0     1                 .L0 
            5490             5490        0     1                 .L0 
            54c0             54c0        0     1                 .L0 
            54f0             54f0        0     1                 .L0 
            5520             5520        0     1                 .L0 
            5550             5550        0     1                 .L0 
            5580             5580        0     1                 .L0 
            55b0             55b0        0     1                 .L0 
            55e0             55e0        0     1                 .L0 
            5610             5610        0     1                 .L0 
            5640             5640        0     1                 .L0 
            5680             5680        0     1                 .L0 
            56b0             56b0        0     1                 .L0 
            56e0             56e0        0     1                 .L0 
            5710             5710        0     1                 .L0 
            5790             5790        0     1                 .L0 
            5810             5810        0     1                 .L0 
            5890             5890        0     1                 .L0 
            5910             5910        0     1                 .L0 
            5990             5990        0     1                 .L0 
            59d0             59d0        0     1                 .L0 
            5a30             5a30        0     1                 .L0 
            5a80             5a80        0     1                 .L0 
            5ae0             5ae0        0     1                 .L0 
            5b30             5b30        0     1                 .L0 
            5b80             5b80        0     1                 .L0 
            5bd0             5bd0        0     1                 .L0 
            5c10             5c10        0     1                 .L0 
            5c40             5c40        0     1                 .L0 
            5c70             5c70        0     1                 .L0 
            5ca0             5ca0        0     1                 .L0 
            5d10             5d10        0     1                 .L0 
            5d70             5d70        0     1                 .L0 
            5dd0             5dd0        0     1                 .L0 
            5e30             5e30        0     1                 .L0 
            5e90             5e90        0     1                 .L0 
            5ed0             5ed0        0     1                 .L0 
            5f10             5f10        0     1                 .L0 
            5f40             5f40        0     1                 .L0 
            5f70             5f70        0     1                 .L0 
            5fa0             5fa0        0     1                 .L0 
            5ff0             5ff0        0     1                 .L0 
            6040             6040        0     1                 .L0 
            6090             6090        0     1                 .L0 
            60c0             60c0        0     1                 .L0 
            6130             6130        0     1                 .L0 
            6160             6160        0     1                 .L0 
            6190             6190        0     1                 .L0 
            61e0             61e0        0     1                 .L0 
            6210             6210        0     1                 .L0 
            6240             6240        0     1                 .L0 
            6270             6270        0     1                 .L0 
            62c0             62c0        0     1                 .L0 
            6310             6310        0     1                 .L0 
            6360             6360        0     1                 .L0 
            63b0             63b0        0     1                 .L0 
            6400             6400        0     1                 .L0 
            6430             6430        0     1                 .L0 
            6480             6480        0     1                 .L0 
            64d0             64d0        0     1                 .L0 
            65b0             65b0        0     1                 .L0 
            6730             6730        0     1                 .L0 
            6870             6870        0     1                 .L0 
            6980             6980        0     1                 .L0 
            6a60             6a60        0     1                 .L0 
            6b40             6b40        0     1                 .L0 
            6c20             6c20        0     1                 .L0 
            6cc0             6cc0        0     1                 .L0 
            6e40             6e40        0     1                 .L0 
            6fc0             6fc0        0     1                 .L0 
            7010             7010        0     1                 .L0 
            7060             7060        0     1                 .L0 
            70b0             70b0        0     1                 .L0 
            70f0             70f0        0     1                 .L0 
            7130             7130        0     1                 .L0 
            7170             7170        0     1                 .L0 
            71b0             71b0        0     1                 .L0 
            71e0             71e0        0     1                 .L0 
            7220             7220        0     1                 .L0 
            7250             7250        0     1                 .L0 
            7280             7280        0     1                 .L0 
            72b0             72b0        0     1                 .L0 
            72e0             72e0        0     1                 .L0 
            7310             7310        0     1                 .L0 
            7340             7340        0     1                 .L0 
            7370             7370        0     1                 .L0 
            73a0             73a0        0     1                 .L0 
            73d0             73d0        0     1                 .L0 
            7410             7410        0     1                 .L0 
            7450             7450        0     1                 .L0 
            7490             7490        0     1                 .L0 
            74c0             74c0        0     1                 .L0 
            74f0             74f0        0     1                 .L0 
            7520             7520        0     1                 .L0 
            7550             7550        0     1                 .L0 
            75a0             75a0        0     1                 .L0 
            7600             7600        0     1                 .L0 
            7650             7650        0     1                 .L0 
            76a0             76a0        0     1                 .L0 
            76d0             76d0        0     1                 .L0 
            7700             7700        0     1                 .L0 
            7730             7730        0     1                 .L0 
            7760             7760        0     1                 .L0 
            7790             7790        0     1                 .L0 
            77c0             77c0        0     1                 .L0 
            7800             7800        0     1                 .L0 
            7840             7840        0     1                 .L0 
            7870             7870        0     1                 .L0 
            78a0             78a0        0     1                 .L0 
            78d0             78d0        0     1                 .L0 
            7900             7900        0     1                 .L0 
            7930             7930        0     1                 .L0 
            7970             7970        0     1                 .L0 
            79a0             79a0        0     1                 .L0 
            79d0             79d0        0     1                 .L0 
            7a00             7a00        0     1                 .L0 
            7a30             7a30        0     1                 .L0 
            7a80             7a80        0     1                 .L0 
            7ad0             7ad0        0     1                 .L0 
            7b20             7b20        0     1                 .L0 
            7b60             7b60        0     1                 .L0 
            7ba0             7ba0        0     1                 .L0 
            7bd0             7bd0        0     1                 .L0 
            7c00             7c00        0     1                 .L0 
            7c30             7c30        0     1                 .L0 
            7c60             7c60        0     1                 .L0 
            7c90             7c90        0     1                 .L0 
            7cc0             7cc0        0     1                 .L0 
            7cf0             7cf0        0     1                 .L0 
            7d20             7d20        0     1                 .L0 
            7d50             7d50        0     1                 .L0 
            7d80             7d80        0     1                 .L0 
            7db0             7db0        0     1                 .L0 
            7df0             7df0        0     1                 .L0 
            7e30             7e30        0     1                 .L0 
            7e60             7e60        0     1                 .L0 
            7e90             7e90        0     1                 .L0 
            7ec0             7ec0        0     1                 .L0 
            7ef0             7ef0        0     1                 .L0 
            7f20             7f20        0     1                 .L0 
            7f70             7f70        0     1                 .L0 
            7fc0             7fc0        0     1                 .L0 
            7ff0             7ff0        0     1                 .L0 
            8020             8020        0     1                 .L0 
            8050             8050        0     1                 .L0 
            8090             8090        0     1                 .L0 
            80e0             80e0        0     1                 .L0 
            8130             8130        0     1                 .L0 
            8160             8160        0     1                 .L0 
            8190             8190        0     1                 .L0 
            81c0             81c0        0     1                 .L0 
            8200             8200        0     1                 .L0 
            8240             8240        0     1                 .L0 
            8280             8280        0     1                 .L0 
            82b0             82b0        0     1                 .L0 
            82e0             82e0        0     1                 .L0 
            8310             8310        0     1                 .L0 
            8340             8340        0     1                 .L0 
            8370             8370        0     1                 .L0 
            83a0             83a0        0     1                 .L0 
            83d0             83d0        0     1                 .L0 
            8400             8400        0     1                 .L0 
            8430             8430        0     1                 .L0 
            8460             8460        0     1                 .L0 
            8490             8490        0     1                 .L0 
            84c0             84c0        0     1                 .L0 
            8500             8500        0     1                 .L0 
            8530             8530        0     1                 .L0 
            8560             8560        0     1                 .L0 
            85a0             85a0        0     1                 .L0 
            85d0             85d0        0     1                 .L0 
            8600             8600        0     1                 .L0 
            8630             8630        0     1                 .L0 
            86b0             86b0        0     1                 .L0 
            8730             8730        0     1                 .L0 
            8770             8770        0     1                 .L0 
            87b0             87b0        0     1                 .L0 
            87e0             87e0        0     1                 .L0 
            8810             8810        0     1                 .L0 
            8840             8840        0     1                 .L0 
            8870             8870        0     1                 .L0 
            88a0             88a0        0     1                 .L0 
            88d0             88d0        0     1                 .L0 
            8900             8900        0     1                 .L0 
            8930             8930        0     1                 .L0 
            8970             8970        0     1                 .L0 
            89a0             89a0        0     1                 .L0 
            89d0             89d0        0     1                 .L0 
            8a10             8a10        0     1                 .L0 
            8a50             8a50        0     1                 .L0 
            8a90             8a90        0     1                 .L0 
            8ad0             8ad0        0     1                 .L0 
            8b10             8b10        0     1                 .L0 
            8b50             8b50        0     1                 .L0 
            8b80             8b80        0     1                 .L0 
            8bb0             8bb0        0     1                 .L0 
            8be0             8be0        0     1                 .L0 
            8c10             8c10        0     1                 .L0 
            8c40             8c40        0     1                 .L0 
            8c70             8c70        0     1                 .L0 
            8ca0             8ca0        0     1                 .L0 
            8cd0             8cd0        0     1                 .L0 
            8d00             8d00        0     1                 .L0 
            8d30             8d30        0     1                 .L0 
            8d60             8d60        0     1                 .L0 
            8d90             8d90        0     1                 .L0 
            8dc0             8dc0        0     1                 .L0 
            8df0             8df0        0     1                 .L0 
            8e20             8e20        0     1                 .L0 
            8e50             8e50        0     1                 .L0 
            8e80             8e80        0     1                 .L0 
            8eb0             8eb0        0     1                 .L0 
            8ee0             8ee0        0     1                 .L0 
            8f10             8f10        0     1                 .L0 
            8f40             8f40        0     1                 .L0 
            8f70             8f70        0     1                 .L0 
            8fa0             8fa0        0     1                 .L0 
            8fd0             8fd0        0     1                 .L0 
            9000             9000        0     1                 .L0 
            9030             9030        0     1                 .L0 
            9060             9060        0     1                 .L0 
            9090             9090        0     1                 .L0 
            90d0             90d0        0     1                 .L0 
            9110             9110        0     1                 .L0 
            9140             9140        0     1                 .L0 
            9180             9180        0     1                 .L0 
            91c0             91c0        0     1                 .L0 
            9200             9200        0     1                 .L0 
            9230             9230        0     1                 .L0 
            9260             9260        0     1                 .L0 
            9290             9290        0     1                 .L0 
            92c0             92c0        0     1                 .L0 
            92f0             92f0        0     1                 .L0 
            9320             9320        0     1                 .L0 
            9350             9350        0     1                 .L0 
            9380             9380        0     1                 .L0 
            93b0             93b0        0     1                 .L0 
            93e0             93e0        0     1                 .L0 
            9410             9410        0     1                 .L0 
            9440             9440        0     1                 .L0 
            9470             9470        0     1                 .L0 
            94a0             94a0        0     1                 .L0 
            94d0             94d0        0     1                 .L0 
            9500             9500        0     1                 .L0 
            9540             9540        0     1                 .L0 
            9580             9580        0     1                 .L0 
            95b0             95b0        0     1                 .L0 
            95e0             95e0        0     1                 .L0 
            9610             9610        0     1                 .L0 
            9640             9640        0     1                 .L0 
            9670             9670        0     1                 .L0 
            96b0             96b0        0     1                 .L0 
            96f0             96f0        0     1                 .L0 
            9720             9720        0     1                 .L0 
            9750             9750        0     1                 .L0 
            9780             9780        0     1                 .L0 
            97b0             97b0        0     1                 .L0 
            97e0             97e0        0     1                 .L0 
            9810             9810        0     1                 .L0 
            9840             9840        0     1                 .L0 
            9870             9870        0     1                 .L0 
            98a0             98a0        0     1                 .L0 
            98d0             98d0        0     1                 .L0 
            9900             9900        0     1                 .L0 
            9930             9930        0     1                 .L0 
            9960             9960        0     1                 .L0 
            9990             9990        0     1                 .L0 
            99e0             99e0        0     1                 .L0 
            9a30             9a30        0     1                 .L0 
            9a60             9a60        0     1                 .L0 
            9a90             9a90        0     1                 .L0 
            9ac0             9ac0        0     1                 .L0 
            9b00             9b00        0     1                 .L0 
            9b40             9b40        0     1                 .L0 
            9b70             9b70        0     1                 .L0 
            9ba0             9ba0        0     1                 .L0 
            9bd0             9bd0        0     1                 .L0 
            9c00             9c00        0     1                 .L0 
            9c40             9c40        0     1                 .L0 
            9c80             9c80        0     1                 .L0 
            9cb0             9cb0        0     1                 .L0 
            9ce0             9ce0        0     1                 .L0 
            9d10             9d10        0     1                 .L0 
            9d40             9d40        0     1                 .L0 
            9d80             9d80        0     1                 .L0 
            9db0             9db0        0     1                 .L0 
            9de0             9de0        0     1                 .L0 
            9e10             9e10        0     1                 .L0 
            9e40             9e40        0     1                 .L0 
            9e70             9e70        0     1                 .L0 
            9ea0             9ea0        0     1                 .L0 
            9ee0             9ee0        0     1                 .L0 
            9f10             9f10        0     1                 .L0 
            9f40             9f40        0     1                 .L0 
            9f70             9f70        0     1                 .L0 
            9fa0             9fa0        0     1                 .L0 
            9fd0             9fd0        0     1                 .L0 
            a010             a010        0     1                 .L0 
            a040             a040        0     1                 .L0 
            a070             a070        0     1                 .L0 
            a0a0             a0a0        0     1                 .L0 
            a0d0             a0d0        0     1                 .L0 
            a100             a100        0     1                 .L0 
            a140             a140        0     1                 .L0 
            a170             a170        0     1                 .L0 
            a1a0             a1a0        0     1                 .L0 
            a1d0             a1d0        0     1                 .L0 
            a200             a200        0     1                 .L0 
            a230             a230        0     1                 .L0 
            a260             a260        0     1                 .L0 
            a2a0             a2a0        0     1                 .L0 
            a2d0             a2d0        0     1                 .L0 
            a300             a300        0     1                 .L0 
            a330             a330        0     1                 .L0 
            a360             a360        0     1                 .L0 
            a390             a390        0     1                 .L0 
            a3d0             a3d0        0     1                 .L0 
            a400             a400        0     1                 .L0 
            a430             a430        0     1                 .L0 
            a460             a460        0     1                 .L0 
            a490             a490        0     1                 .L0 
            a4d0             a4d0        0     1                 .L0 
            a500             a500        0     1                 .L0 
            a530             a530        0     1                 .L0 
            a560             a560        0     1                 .L0 
            a590             a590        0     1                 .L0 
            a5c0             a5c0        0     1                 .L0 
            a600             a600        0     1                 .L0 
            a630             a630        0     1                 .L0 
            a660             a660        0     1                 .L0 
            a6a0             a6a0        0     1                 .L0 
            a6d0             a6d0        0     1                 .L0 
            a700             a700        0     1                 .L0 
            a730             a730        0     1                 .L0 
            a760             a760        0     1                 .L0 
            a790             a790        0     1                 .L0 
            a7c0             a7c0        0     1                 .L0 
            a7f0             a7f0        0     1                 .L0 
            a820             a820        0     1                 .L0 
            a850             a850        0     1                 .L0 
            a880             a880        0     1                 .L0 
            a8b0             a8b0        0     1                 .L0 
            a8f0             a8f0        0     1                 .L0 
            a920             a920        0     1                 .L0 
            a950             a950        0     1                 .L0 
            a980             a980        0     1                 .L0 
            a9c0             a9c0        0     1                 .L0 
            a9f0             a9f0        0     1                 .L0 
            aa20             aa20        0     1                 .L0 
            aa60             aa60        0     1                 .L0 
            aa90             aa90        0     1                 .L0 
            aac0             aac0        0     1                 .L0 
            ab00             ab00        0     1                 .L0 
            ab30             ab30        0     1                 .L0 
            ab60             ab60        0     1                 .L0 
            aba0             aba0        0     1                 .L0 
            abd0             abd0        0     1                 .L0 
            ac00             ac00        0     1                 .L0 
            ac30             ac30        0     1                 .L0 
            ac60             ac60        0     1                 .L0 
            ac90             ac90        0     1                 .L0 
            acc0             acc0        0     1                 .L0 
            acf0             acf0        0     1                 .L0 
            ad30             ad30        0     1                 .L0 
            ad60             ad60        0     1                 .L0 
            ad90             ad90        0     1                 .L0 
            adc0             adc0        0     1                 .L0 
            adf0             adf0        0     1                 .L0 
            ae30             ae30        0     1                 .L0 
            ae60             ae60        0     1                 .L0 
            ae90             ae90        0     1                 .L0 
            aec0             aec0        0     1                 .L0 
            af00             af00        0     1                 .L0 
            af30             af30        0     1                 .L0 
            af70             af70        0     1                 .L0 
            afb0             afb0        0     1                 .L0 
            aff0             aff0        0     1                 .L0 
            b020             b020        0     1                 .L0 
            b050             b050        0     1                 .L0 
            b080             b080        0     1                 .L0 
            b0b0             b0b0        0     1                 .L0 
            b0f0             b0f0        0     1                 .L0 
            b130             b130        0     1                 .L0 
            b170             b170        0     1                 .L0 
            b1a0             b1a0        0     1                 .L0 
            b1d0             b1d0        0     1                 .L0 
            b200             b200        0     1                 .L0 
            b230             b230        0     1                 .L0 
            b260             b260        0     1                 .L0 
            b290             b290        0     1                 .L0 
            b2c0             b2c0        0     1                 .L0 
            b2f0             b2f0        0     1                 .L0 
            b330             b330        0     1                 .L0 
            b360             b360        0     1                 .L0 
            b390             b390        0     1                 .L0 
            b3c0             b3c0        0     1                 .L0 
            b400             b400        0     1                 .L0 
            b430             b430        0     1                 .L0 
            b460             b460        0     1                 .L0 
            b490             b490        0     1                 .L0 
            b4c0             b4c0        0     1                 .L0 
            b4f0             b4f0        0     1                 .L0 
            b520             b520        0     1                 .L0 
            b550             b550        0     1                 .L0 
            b580             b580        0     1                 .L0 
            b5b0             b5b0        0     1                 .L0 
            b5e0             b5e0        0     1                 .L0 
            b610             b610        0     1                 .L0 
            b640             b640        0     1                 .L0 
            b670             b670        0     1                 .L0 
            b6a0             b6a0        0     1                 .L0 
            b6d0             b6d0        0     1                 .L0 
            b710             b710        0     1                 .L0 
            b750             b750        0     1                 .L0 
            b780             b780        0     1                 .L0 
            b7b0             b7b0        0     1                 .L0 
            b7e0             b7e0        0     1                 .L0 
            b820             b820        0     1                 .L0 
            b860             b860        0     1                 .L0 
            b8a0             b8a0        0     1                 .L0 
            b8d0             b8d0        0     1                 .L0 
            b900             b900        0     1                 .L0 
            b930             b930        0     1                 .L0 
            b960             b960        0     1                 .L0 
            b990             b990        0     1                 .L0 
            b9c0             b9c0        0     1                 .L0 
            b9f0             b9f0        0     1                 .L0 
            ba20             ba20        0     1                 .L0 
            ba50             ba50        0     1                 .L0 
            ba80             ba80        0     1                 .L0 
            bac0             bac0        0     1                 .L0 
            baf0             baf0        0     1                 .L0 
            bb20             bb20        0     1                 .L0 
            bb50             bb50        0     1                 .L0 
            bb80             bb80        0     1                 .L0 
            bbb0             bbb0        0     1                 .L0 
            bbe0             bbe0        0     1                 .L0 
            bc10             bc10        0     1                 .L0 
            bc40             bc40        0     1                 .L0 
            bc70             bc70        0     1                 .L0 
            bca0             bca0        0     1                 .L0 
            bcd0             bcd0        0     1                 .L0 
            bd10             bd10        0     1                 .L0 
            bd50             bd50        0     1                 .L0 
            bd90             bd90        0     1                 .L0 
            bdc0             bdc0        0     1                 .L0 
            be00             be00        0     1                 .L0 
            be40             be40        0     1                 .L0 
            be80             be80        0     1                 .L0 
            bec0             bec0        0     1                 .L0 
            bf00             bf00        0     1                 .L0 
            bf30             bf30        0     1                 .L0 
            bf70             bf70        0     1                 .L0 
            bfb0             bfb0        0     1                 .L0 
            bff0             bff0        0     1                 .L0 
            c020             c020        0     1                 .L0 
            c070             c070        0     1                 .L0 
            c0c0             c0c0        0     1                 .L0 
            c110             c110        0     1                 .L0 
            c160             c160        0     1                 .L0 
            c1b0             c1b0        0     1                 .L0 
            c200             c200        0     1                 .L0 
            c250             c250        0     1                 .L0 
            c2a0             c2a0        0     1                 .L0 
            c2e0             c2e0        0     1                 .L0 
            c310             c310        0     1                 .L0 
            c340             c340        0     1                 .L0 
            c370             c370        0     1                 .L0 
            c3a0             c3a0        0     1                 .L0 
            c3d0             c3d0        0     1                 .L0 
            c400             c400        0     1                 .L0 
            c430             c430        0     1                 .L0 
            c460             c460        0     1                 .L0 
            c490             c490        0     1                 .L0 
            c4c0             c4c0        0     1                 .L0 
            c4f0             c4f0        0     1                 .L0 
            c520             c520        0     1                 .L0 
            c550             c550        0     1                 .L0 
            c580             c580        0     1                 .L0 
            c5b0             c5b0        0     1                 .L0 
            c5e0             c5e0        0     1                 .L0 
            c610             c610        0     1                 .L0 
            c640             c640        0     1                 .L0 
            c670             c670        0     1                 .L0 
            c6a0             c6a0        0     1                 .L0 
            c6d0             c6d0        0     1                 .L0 
            c700             c700        0     1                 .L0 
            c730             c730        0     1                 .L0 
            c760             c760        0     1                 .L0 
            c790             c790        0     1                 .L0 
            c7c0             c7c0        0     1                 .L0 
            c7f0             c7f0        0     1                 .L0 
            c820             c820        0     1                 .L0 
            c850             c850        0     1                 .L0 
            c880             c880        0     1                 .L0 
            c8b0             c8b0        0     1                 .L0 
            c920             c920        0     1                 .L0 
            c960             c960        0     1                 .L0 
            c990             c990        0     1                 .L0 
            c9c0             c9c0        0     1                 .L0 
            c9f0             c9f0        0     1                 .L0 
            ca30             ca30        0     1                 .L0 
            ca70             ca70        0     1                 .L0 
            caa0             caa0        0     1                 .L0 
            cad0             cad0        0     1                 .L0 
            cb00             cb00        0     1                 .L0 
            cb30             cb30        0     1                 .L0 
            cb60             cb60        0     1                 .L0 
            cba0             cba0        0     1                 .L0 
            cbe0             cbe0        0     1                 .L0 
            cc10             cc10        0     1                 .L0 
            cc40             cc40        0     1                 .L0 
            cc70             cc70        0     1                 .L0 
            cca0             cca0        0     1                 .L0 
            ccd0             ccd0        0     1                 .L0 
            cd00             cd00        0     1                 .L0 
            cd30             cd30        0     1                 .L0 
            cd60             cd60        0     1                 .L0 
            cd90             cd90        0     1                 .L0 
            cdc0             cdc0        0     1                 .L0 
            cdf0             cdf0        0     1                 .L0 
            ce20             ce20        0     1                 .L0 
            ce50             ce50        0     1                 .L0 
            ce80             ce80        0     1                 .L0 
            ceb0             ceb0        0     1                 .L0 
            cee0             cee0        0     1                 .L0 
            cf10             cf10        0     1                 .L0 
            cf50             cf50        0     1                 .L0 
            cf90             cf90        0     1                 .L0 
            cfc0             cfc0        0     1                 .L0 
            cff0             cff0        0     1                 .L0 
            d040             d040        0     1                 .L0 
            d070             d070        0     1                 .L0 
            d0a0             d0a0        0     1                 .L0 
            d0d0             d0d0        0     1                 .L0 
            d110             d110        0     1                 .L0 
            d150             d150        0     1                 .L0 
            d190             d190        0     1                 .L0 
            d1c0             d1c0        0     1                 .L0 
            d1f0             d1f0        0     1                 .L0 
            d220             d220        0     1                 .L0 
            d250             d250        0     1                 .L0 
            d280             d280        0     1                 .L0 
            d2b0             d2b0        0     1                 .L0 
            d2e0             d2e0        0     1                 .L0 
            d310             d310        0     1                 .L0 
            d350             d350        0     1                 .L0 
            d380             d380        0     1                 .L0 
            d3b0             d3b0        0     1                 .L0 
            d3f0             d3f0        0     1                 .L0 
            d420             d420        0     1                 .L0 
            d450             d450        0     1                 .L0 
            d480             d480        0     1                 .L0 
            d4b0             d4b0        0     1                 .L0 
            d4e0             d4e0        0     1                 .L0 
            d510             d510        0     1                 .L0 
            d540             d540        0     1                 .L0 
            d570             d570        0     1                 .L0 
            d5a0             d5a0        0     1                 .L0 
            d5d0             d5d0        0     1                 .L0 
            d600             d600        0     1                 .L0 
            d630             d630        0     1                 .L0 
            d660             d660        0     1                 .L0 
            d690             d690        0     1                 .L0 
            d6c0             d6c0        0     1                 .L0 
            d6f0             d6f0        0     1                 .L0 
            d720             d720        0     1                 .L0 
            d760             d760        0     1                 .L0 
            d7a0             d7a0        0     1                 .L0 
            d7e0             d7e0        0     1                 .L0 
            d810             d810        0     1                 .L0 
            d870             d870        0     1                 .L0 
            d8d0             d8d0        0     1                 .L0 
            d930             d930        0     1                 .L0 
            d970             d970        0     1                 .L0 
            d9b0             d9b0        0     1                 .L0 
            d9e0             d9e0        0     1                 .L0 
            da10             da10        0     1                 .L0 
            da40             da40        0     1                 .L0 
            da80             da80        0     1                 .L0 
            dab0             dab0        0     1                 .L0 
            dae0             dae0        0     1                 .L0 
            db10             db10        0     1                 .L0 
            db40             db40        0     1                 .L0 
            db70             db70        0     1                 .L0 
            dba0             dba0        0     1                 .L0 
            dbd0             dbd0        0     1                 .L0 
            dc00             dc00        0     1                 .L0 
            dc30             dc30        0     1                 .L0 
            dc60             dc60        0     1                 .L0 
            dc90             dc90        0     1                 .L0 
            dcc0             dcc0        0     1                 .L0 
            dcf0             dcf0        0     1                 .L0 
            dd20             dd20        0     1                 .L0 
            dd50             dd50        0     1                 .L0 
            dd90             dd90        0     1                 .L0 
            ddd0             ddd0        0     1                 .L0 
            de10             de10        0     1                 .L0 
            de50             de50        0     1                 .L0 
            de90             de90        0     1                 .L0 
            ded0             ded0        0     1                 .L0 
            df00             df00        0     1                 .L0 
            df30             df30        0     1                 .L0 
            df60             df60        0     1                 .L0 
            df90             df90        0     1                 .L0 
            dfc0             dfc0        0     1                 .L0 
            dff0             dff0        0     1                 .L0 
            e020             e020        0     1                 .L0 
            e050             e050        0     1                 .L0 
            e080             e080        0     1                 .L0 
            e0c0             e0c0        0     1                 .L0 
            e0f0             e0f0        0     1                 .L0 
            e120             e120        0     1                 .L0 
            e150             e150        0     1                 .L0 
            e180             e180        0     1                 .L0 
            e1b0             e1b0        0     1                 .L0 
            e1e0             e1e0        0     1                 .L0 
            e210             e210        0     1                 .L0 
            e240             e240        0     1                 .L0 
            e270             e270        0     1                 .L0 
            e2a0             e2a0        0     1                 .L0 
            e2d0             e2d0        0     1                 .L0 
            e300             e300        0     1                 .L0 
            e330             e330        0     1                 .L0 
            e5b0             e5b0        0     1                 .L0 
            e830             e830        0     1                 .L0 
            e860             e860        0     1                 .L0 
            e890             e890        0     1                 .L0 
            e8c0             e8c0        0     1                 .L0 
            e8f0             e8f0        0     1                 .L0 
            e920             e920        0     1                 .L0 
            e950             e950        0     1                 .L0 
            e980             e980        0     1                 .L0 
            e9b0             e9b0        0     1                 .L0 
            e9e0             e9e0        0     1                 .L0 
            ea10             ea10        0     1                 .L0 
            ea50             ea50        0     1                 .L0 
            ea80             ea80        0     1                 .L0 
            eab0             eab0        0     1                 .L0 
            eae0             eae0        0     1                 .L0 
            eb10             eb10        0     1                 .L0 
            eb60             eb60        0     1                 .L0 
            eb90             eb90        0     1                 .L0 
            ebd0             ebd0        0     1                 .L0 
            ec10             ec10        0     1                 .L0 
            ec50             ec50        0     1                 .L0 
            ec80             ec80        0     1                 .L0 
            ecb0             ecb0        0     1                 .L0 
            ece0             ece0        0     1                 .L0 
            ed10             ed10        0     1                 .L0 
            ed50             ed50        0     1                 .L0 
            ed80             ed80        0     1                 .L0 
            edb0             edb0        0     1                 .L0 
            ede0             ede0        0     1                 .L0 
            ee10             ee10        0     1                 .L0 
            ee40             ee40        0     1                 .L0 
            ee70             ee70        0     1                 .L0 
            eea0             eea0        0     1                 .L0 
            eee0             eee0        0     1                 .L0 
            ef10             ef10        0     1                 .L0 
            ef40             ef40        0     1                 .L0 
            ef70             ef70        0     1                 .L0 
            efa0             efa0        0     1                 .L0 
            efd0             efd0        0     1                 .L0 
            f000             f000        0     1                 .L0 
            f030             f030        0     1                 .L0 
            f060             f060        0     1                 .L0 
            f090             f090        0     1                 .L0 
            f0d0             f0d0        0     1                 .L0 
            f110             f110        0     1                 .L0 
            f150             f150        0     1                 .L0 
            f180             f180        0     1                 .L0 
            f1b0             f1b0        0     1                 .L0 
            f1e0             f1e0        0     1                 .L0 
            f210             f210        0     1                 .L0 
            f240             f240        0     1                 .L0 
            f270             f270        0     1                 .L0 
            f2a0             f2a0        0     1                 .L0 
            f2d0             f2d0        0     1                 .L0 
            f300             f300        0     1                 .L0 
            f330             f330        0     1                 .L0 
            f360             f360        0     1                 .L0 
            f390             f390        0     1                 .L0 
            f3c0             f3c0        0     1                 .L0 
            f3f0             f3f0        0     1                 .L0 
            f420             f420        0     1                 .L0 
            f450             f450        0     1                 .L0 
            f480             f480        0     1                 .L0 
            f4b0             f4b0        0     1                 .L0 
            f500             f500        0     1                 .L0 
            f540             f540        0     1                 .L0 
            f570             f570        0     1                 .L0 
            f5a0             f5a0        0     1                 .L0 
            f5d0             f5d0        0     1                 .L0 
            f600             f600        0     1                 .L0 
            f630             f630        0     1                 .L0 
            f660             f660        0     1                 .L0 
            f690             f690        0     1                 .L0 
            f6c0             f6c0        0     1                 .L0 
            f6f0             f6f0        0     1                 .L0 
            f740             f740        0     1                 .L0 
            f790             f790        0     1                 .L0 
            f7e0             f7e0        0     1                 .L0 
            f840             f840        0     1                 .L0 
            f8a0             f8a0        0     1                 .L0 
            f8d0             f8d0        0     1                 .L0 
            f900             f900        0     1                 .L0 
            f930             f930        0     1                 .L0 
            f960             f960        0     1                 .L0 
            f990             f990        0     1                 .L0 
            f9c0             f9c0        0     1                 .L0 
            f9f0             f9f0        0     1                 .L0 
            fa30             fa30        0     1                 .L0 
            fa70             fa70        0     1                 .L0 
            faa0             faa0        0     1                 .L0 
            fad0             fad0        0     1                 .L0 
            fb00             fb00        0     1                 .L0 
            fb30             fb30        0     1                 .L0 
            fb60             fb60        0     1                 .L0 
            fb90             fb90        0     1                 .L0 
            fbc0             fbc0        0     1                 .L0 
            fbf0             fbf0        0     1                 .L0 
            fc20             fc20        0     1                 .L0 
            fc50             fc50        0     1                 .L0 
            fc80             fc80        0     1                 .L0 
            fcb0             fcb0        0     1                 .L0 
            fce0             fce0        0     1                 .L0 
            fd10             fd10        0     1                 .L0 
            fd40             fd40        0     1                 .L0 
            fd70             fd70        0     1                 .L0 
            fda0             fda0        0     1                 .L0 
            fdd0             fdd0        0     1                 .L0 
            fe00             fe00        0     1                 .L0 
            fe30             fe30        0     1                 .L0 
            fe60             fe60        0     1                 .L0 
            fe90             fe90        0     1                 .L0 
            fec0             fec0        0     1                 .L0 
            fef0             fef0        0     1                 .L0 
            ff30             ff30        0     1                 .L0 
            ff60             ff60        0     1                 .L0 
            ff90             ff90        0     1                 .L0 
            ffc0             ffc0        0     1                 .L0 
            fff0             fff0        0     1                 .L0 
           10020            10020        0     1                 .L0 
           10050            10050        0     1                 .L0 
           10080            10080        0     1                 .L0 
           100b0            100b0        0     1                 .L0 
           100e0            100e0        0     1                 .L0 
           10110            10110        0     1                 .L0 
           10150            10150        0     1                 .L0 
           10190            10190        0     1                 .L0 
           101c0            101c0        0     1                 .L0 
           101f0            101f0        0     1                 .L0 
           10220            10220        0     1                 .L0 
           10250            10250        0     1                 .L0 
           10280            10280        0     1                 .L0 
           102b0            102b0        0     1                 .L0 
           102f0            102f0        0     1                 .L0 
           10330            10330        0     1                 .L0 
           10360            10360        0     1                 .L0 
           10390            10390        0     1                 .L0 
           103c0            103c0        0     1                 .L0 
           103f0            103f0        0     1                 .L0 
           10440            10440        0     1                 .L0 
           10480            10480        0     1                 .L0 
           104c0            104c0        0     1                 .L0 
           10500            10500        0     1                 .L0 
           10540            10540        0     1                 .L0 
           105a0            105a0        0     1                 .L0 
           105d0            105d0        0     1                 .L0 
           10610            10610        0     1                 .L0 
           10650            10650        0     1                 .L0 
           10690            10690        0     1                 .L0 
           106d0            106d0        0     1                 .L0 
           10700            10700        0     1                 .L0 
           10730            10730        0     1                 .L0 
           10760            10760        0     1                 .L0 
           10790            10790        0     1                 .L0 
           107c0            107c0        0     1                 .L0 
           107f0            107f0        0     1                 .L0 
           10820            10820        0     1                 .L0 
           10860            10860        0     1                 .L0 
           108a0            108a0        0     1                 .L0 
           108e0            108e0        0     1                 .L0 
           10910            10910        0     1                 .L0 
           10940            10940        0     1                 .L0 
           10970            10970        0     1                 .L0 
           109a0            109a0        0     1                 .L0 
           109d0            109d0        0     1                 .L0 
           10a10            10a10        0     1                 .L0 
           10a50            10a50        0     1                 .L0 
           10a90            10a90        0     1                 .L0 
           10ac0            10ac0        0     1                 .L0 
           10af0            10af0        0     1                 .L0 
           10b20            10b20        0     1                 .L0 
           10b50            10b50        0     1                 .L0 
           10b80            10b80        0     1                 .L0 
           10bb0            10bb0        0     1                 .L0 
           10be0            10be0        0     1                 .L0 
           10c10            10c10        0     1                 .L0 
           10c40            10c40        0     1                 .L0 
           10c70            10c70        0     1                 .L0 
           10ca0            10ca0        0     1                 .L0 
           10ce0            10ce0        0     1                 .L0 
           10d20            10d20        0     1                 .L0 
           10d50            10d50        0     1                 .L0 
           10d80            10d80        0     1                 .L0 
           10db0            10db0        0     1                 .L0 
           10de0            10de0        0     1                 .L0 
           10e10            10e10        0     1                 .L0 
           10e40            10e40        0     1                 .L0 
           10e70            10e70        0     1                 .L0 
           10ea0            10ea0        0     1                 .L0 
           10f00            10f00        0     1                 .L0 
           10f40            10f40        0     1                 .L0 
           10f70            10f70        0     1                 .L0 
           10fa0            10fa0        0     1                 .L0 
           10fd0            10fd0        0     1                 .L0 
           11000            11000        0     1                 .L0 
           11030            11030        0     1                 .L0 
           11060            11060        0     1                 .L0 
           11090            11090        0     1                 .L0 
           110c0            110c0        0     1                 .L0 
           11110            11110        0     1                 .L0 
           11150            11150        0     1                 .L0 
           11190            11190        0     1                 .L0 
           111d0            111d0        0     1                 .L0 
           11210            11210        0     1                 .L0 
           11240            11240        0     1                 .L0 
           11270            11270        0     1                 .L0 
           112a0            112a0        0     1                 .L0 
           112d0            112d0        0     1                 .L0 
           11310            11310        0     1                 .L0 
           11340            11340        0     1                 .L0 
           11370            11370        0     1                 .L0 
           113a0            113a0        0     1                 .L0 
           113d0            113d0        0     1                 .L0 
           11400            11400        0     1                 .L0 
           11430            11430        0     1                 .L0 
           11460            11460        0     1                 .L0 
           11490            11490        0     1                 .L0 
           114c0            114c0        0     1                 .L0 
           114f0            114f0        0     1                 .L0 
           11520            11520        0     1                 .L0 
           11550            11550        0     1                 .L0 
           11580            11580        0     1                 .L0 
           115b0            115b0        0     1                 .L0 
           115f0            115f0        0     1                 .L0 
           11630            11630        0     1                 .L0 
           11660            11660        0     1                 .L0 
           11690            11690        0     1                 .L0 
           116c0            116c0        0     1                 .L0 
           11700            11700        0     1                 .L0 
           11740            11740        0     1                 .L0 
           11770            11770        0     1                 .L0 
           117a0            117a0        0     1                 .L0 
           117d0            117d0        0     1                 .L0 
           11800            11800        0     1                 .L0 
           11830            11830        0     1                 .L0 
           11860            11860        0     1                 .L0 
           118a0            118a0        0     1                 .L0 
           118d0            118d0        0     1                 .L0 
           11900            11900        0     1                 .L0 
           11940            11940        0     1                 .L0 
           11980            11980        0     1                 .L0 
           119c0            119c0        0     1                 .L0 
           119f0            119f0        0     1                 .L0 
           11a30            11a30        0     1                 .L0 
           11a60            11a60        0     1                 .L0 
           11a90            11a90        0     1                 .L0 
           11ac0            11ac0        0     1                 .L0 
           11af0            11af0        0     1                 .L0 
           11b20            11b20        0     1                 .L0 
           11b50            11b50        0     1                 .L0 
           11b80            11b80        0     1                 .L0 
           11bb0            11bb0        0     1                 .L0 
           11be0            11be0        0     1                 .L0 
           11c10            11c10        0     1                 .L0 
           11c40            11c40        0     1                 .L0 
           11c80            11c80        0     1                 .L0 
           11cc0            11cc0        0     1                 .L0 
           11d00            11d00        0     1                 .L0 
           11d30            11d30        0     1                 .L0 
           11d60            11d60        0     1                 .L0 
           11d90            11d90        0     1                 .L0 
           11dc0            11dc0        0     1                 .L0 
           11e00            11e00        0     1                 .L0 
           11e40            11e40        0     1                 .L0 
           11e70            11e70        0     1                 .L0 
           11ec0            11ec0        0     1                 .L0 
           11f00            11f00        0     1                 .L0 
           11f40            11f40        0     1                 .L0 
           11f80            11f80        0     1                 .L0 
           11fc0            11fc0        0     1                 .L0 
           12000            12000        0     1                 .L0 
           12040            12040        0     1                 .L0 
           12080            12080        0     1                 .L0 
           120c0            120c0        0     1                 .L0 
           12100            12100        0     1                 .L0 
           12140            12140        0     1                 .L0 
           12190            12190        0     1                 .L0 
           121d0            121d0        0     1                 .L0 
           12210            12210        0     1                 .L0 
           12250            12250        0     1                 .L0 
           12290            12290        0     1                 .L0 
           122d0            122d0        0     1                 .L0 
           12310            12310        0     1                 .L0 
           12350            12350        0     1                 .L0 
           12390            12390        0     1                 .L0 
           123d0            123d0        0     1                 .L0 
           12410            12410        0     1                 .L0 
           12450            12450        0     1                 .L0 
           12490            12490        0     1                 .L0 
           124d0            124d0        0     1                 .L0 
           12510            12510        0     1                 .L0 
           12550            12550        0     1                 .L0 
           12590            12590        0     1                 .L0 
           125d0            125d0        0     1                 .L0 
           12610            12610        0     1                 .L0 
           12650            12650        0     1                 .L0 
           12690            12690        0     1                 .L0 
           126d0            126d0        0     1                 .L0 
           12710            12710        0     1                 .L0 
           12750            12750        0     1                 .L0 
           12780            12780        0     1                 .L0 
           127d0            127d0        0     1                 .L0 
           12800            12800        0     1                 .L0 
           12830            12830        0     1                 .L0 
           12860            12860        0     1                 .L0 
           12890            12890        0     1                 .L0 
           128d0            128d0        0     1                 .L0 
           12900            12900        0     1                 .L0 
           12930            12930        0     1                 .L0 
           12960            12960        0     1                 .L0 
           12990            12990        0     1                 .L0 
           129c0            129c0        0     1                 .L0 
           129f0            129f0        0     1                 .L0 
           12a30            12a30        0     1                 .L0 
           12a60            12a60        0     1                 .L0 
           12aa0            12aa0        0     1                 .L0 
           12ad0            12ad0        0     1                 .L0 
           12b00            12b00        0     1                 .L0 
           12b30            12b30        0     1                 .L0 
           12b60            12b60        0     1                 .L0 
           12b90            12b90        0     1                 .L0 
           12bc0            12bc0        0     1                 .L0 
           12bf0            12bf0        0     1                 .L0 
           12c20            12c20        0     1                 .L0 
           12c50            12c50        0     1                 .L0 
           12c80            12c80        0     1                 .L0 
           12cb0            12cb0        0     1                 .L0 
           12ce0            12ce0        0     1                 .L0 
           12d10            12d10        0     1                 .L0 
           12d40            12d40        0     1                 .L0 
           12d70            12d70        0     1                 .L0 
           12da0            12da0        0     1                 .L0 
           12dd0            12dd0        0     1                 .L0 
           12e00            12e00        0     1                 .L0 
           12e30            12e30        0     1                 .L0 
           12e60            12e60        0     1                 .L0 
           12e90            12e90        0     1                 .L0 
           12ec0            12ec0        0     1                 .L0 
           12ef0            12ef0        0     1                 .L0 
           12f20            12f20        0     1                 .L0 
           12f60            12f60        0     1                 .L0 
           12fa0            12fa0        0     1                 .L0 
           12fe0            12fe0        0     1                 .L0 
           13010            13010        0     1                 .L0 
           13040            13040        0     1                 .L0 
           13070            13070        0     1                 .L0 
           130b0            130b0        0     1                 .L0 
           130e0            130e0        0     1                 .L0 
           13110            13110        0     1                 .L0 
           13140            13140        0     1                 .L0 
           13170            13170        0     1                 .L0 
           131a0            131a0        0     1                 .L0 
           131d0            131d0        0     1                 .L0 
           13200            13200        0     1                 .L0 
           13240            13240        0     1                 .L0 
           13270            13270        0     1                 .L0 
           132a0            132a0        0     1                 .L0 
           132d0            132d0        0     1                 .L0 
           13310            13310        0     1                 .L0 
           13340            13340        0     1                 .L0 
           13370            13370        0     1                 .L0 
           133a0            133a0        0     1                 .L0 
           133d0            133d0        0     1                 .L0 
           13410            13410        0     1                 .L0 
           13440            13440        0     1                 .L0 
           13470            13470        0     1                 .L0 
           134a0            134a0        0     1                 .L0 
           134e0            134e0        0     1                 .L0 
           13510            13510        0     1                 .L0 
           13540            13540        0     1                 .L0 
           13570            13570        0     1                 .L0 
           135a0            135a0        0     1                 .L0 
           135e0            135e0        0     1                 .L0 
           13620            13620        0     1                 .L0 
           13650            13650        0     1                 .L0 
           13680            13680        0     1                 .L0 
           136b0            136b0        0     1                 .L0 
           136e0            136e0        0     1                 .L0 
           13710            13710        0     1                 .L0 
           13740            13740        0     1                 .L0 
           13780            13780        0     1                 .L0 
           137c0            137c0        0     1                 .L0 
           13800            13800        0     1                 .L0 
           13840            13840        0     1                 .L0 
           13880            13880        0     1                 .L0 
           138c0            138c0        0     1                 .L0 
           138f0            138f0        0     1                 .L0 
           13970            13970        0     1                 .L0 
           139e0            139e0        0     1                 .L0 
           13a30            13a30        0     1                 .L0 
           13a80            13a80        0     1                 .L0 
           13ac0            13ac0        0     1                 .L0 
           13b00            13b00        0     1                 .L0 
           13b30            13b30        0     1                 .L0 
           13b60            13b60        0     1                 .L0 
           13b90            13b90        0     1                 .L0 
           13bc0            13bc0        0     1                 .L0 
           13bf0            13bf0        0     1                 .L0 
           13c20            13c20        0     1                 .L0 
           13c50            13c50        0     1                 .L0 
           13ca0            13ca0        0     1                 .L0 
           13ce0            13ce0        0     1                 .L0 
           13d20            13d20        0     1                 .L0 
           13d60            13d60        0     1                 .L0 
           13da0            13da0        0     1                 .L0 
           13dd0            13dd0        0     1                 .L0 
           13e00            13e00        0     1                 .L0 
           13e30            13e30        0     1                 .L0 
           13e60            13e60        0     1                 .L0 
           13e90            13e90        0     1                 .L0 
           13ec0            13ec0        0     1                 .L0 
           13ef0            13ef0        0     1                 .L0 
           13f40            13f40        0     1                 .L0 
           13f70            13f70        0     1                 .L0 
           13fa0            13fa0        0     1                 .L0 
           13fd0            13fd0        0     1                 .L0 
           14000            14000        0     1                 .L0 
           14040            14040        0     1                 .L0 
           14070            14070        0     1                 .L0 
           140a0            140a0        0     1                 .L0 
           140d0            140d0        0     1                 .L0 
           14100            14100        0     1                 .L0 
           14150            14150        0     1                 .L0 
           14190            14190        0     1                 .L0 
           141c0            141c0        0     1                 .L0 
           141f0            141f0        0     1                 .L0 
           14220            14220        0     1                 .L0 
           14250            14250        0     1                 .L0 
           14290            14290        0     1                 .L0 
           142c0            142c0        0     1                 .L0 
           142f0            142f0        0     1                 .L0 
           14320            14320        0     1                 .L0 
           14350            14350        0     1                 .L0 
           14380            14380        0     1                 .L0 
           143c0            143c0        0     1                 .L0 
           14400            14400        0     1                 .L0 
           14440            14440        0     1                 .L0 
           14480            14480        0     1                 .L0 
           144b0            144b0        0     1                 .L0 
           144e0            144e0        0     1                 .L0 
           14510            14510        0     1                 .L0 
           14540            14540        0     1                 .L0 
           14570            14570        0     1                 .L0 
           145a0            145a0        0     1                 .L0 
           145d0            145d0        0     1                 .L0 
           14600            14600        0     1                 .L0 
           14630            14630        0     1                 .L0 
           14660            14660        0     1                 .L0 
           14690            14690        0     1                 .L0 
           146c0            146c0        0     1                 .L0 
           146f0            146f0        0     1                 .L0 
           14720            14720        0     1                 .L0 
           14750            14750        0     1                 .L0 
           14780            14780        0     1                 .L0 
           147b0            147b0        0     1                 .L0 
           147e0            147e0        0     1                 .L0 
           14810            14810        0     1                 .L0 
           14840            14840        0     1                 .L0 
           14870            14870        0     1                 .L0 
           148a0            148a0        0     1                 .L0 
           148d0            148d0        0     1                 .L0 
           14900            14900        0     1                 .L0 
           14940            14940        0     1                 .L0 
           14970            14970        0     1                 .L0 
           149a0            149a0        0     1                 .L0 
           149d0            149d0        0     1                 .L0 
           14a00            14a00        0     1                 .L0 
           14a30            14a30        0     1                 .L0 
           14a60            14a60        0     1                 .L0 
           14a90            14a90        0     1                 .L0 
           14ac0            14ac0        0     1                 .L0 
           14af0            14af0        0     1                 .L0 
           14b20            14b20        0     1                 .L0 
           14b50            14b50        0     1                 .L0 
           14b80            14b80        0     1                 .L0 
           14bb0            14bb0        0     1                 .L0 
           14be0            14be0        0     1                 .L0 
           14c10            14c10        0     1                 .L0 
           14c50            14c50        0     1                 .L0 
           14c80            14c80        0     1                 .L0 
           14cb0            14cb0        0     1                 .L0 
           14ce0            14ce0        0     1                 .L0 
           14d10            14d10        0     1                 .L0 
           14d40            14d40        0     1                 .L0 
           14d70            14d70        0     1                 .L0 
           14da0            14da0        0     1                 .L0 
           14dd0            14dd0        0     1                 .L0 
           14e00            14e00        0     1                 .L0 
           14e30            14e30        0     1                 .L0 
           14e60            14e60        0     1                 .L0 
           14e90            14e90        0     1                 .L0 
           14ec0            14ec0        0     1                 .L0 
           14f00            14f00        0     1                 .L0 
           14f40            14f40        0     1                 .L0 
           14f80            14f80        0     1                 .L0 
           14fb0            14fb0        0     1                 .L0 
           14fe0            14fe0        0     1                 .L0 
           15020            15020        0     1                 .L0 
           15050            15050        0     1                 .L0 
           15080            15080        0     1                 .L0 
           150b0            150b0        0     1                 .L0 
           150e0            150e0        0     1                 .L0 
           15110            15110        0     1                 .L0 
           15140            15140        0     1                 .L0 
           15170            15170        0     1                 .L0 
           151a0            151a0        0     1                 .L0 
           151d0            151d0        0     1                 .L0 
           15200            15200        0     1                 .L0 
           15230            15230        0     1                 .L0 
           15260            15260        0     1                 .L0 
           152a0            152a0        0     1                 .L0 
           152e0            152e0        0     1                 .L0 
           15310            15310        0     1                 .L0 
           15350            15350        0     1                 .L0 
           15380            15380        0     1                 .L0 
           153b0            153b0        0     1                 .L0 
           153e0            153e0        0     1                 .L0 
           15410            15410        0     1                 .L0 
           15440            15440        0     1                 .L0 
           15470            15470        0     1                 .L0 
           154a0            154a0        0     1                 .L0 
           154d0            154d0        0     1                 .L0 
           15510            15510        0     1                 .L0 
           15550            15550        0     1                 .L0 
           15590            15590        0     1                 .L0 
           155d0            155d0        0     1                 .L0 
           15600            15600        0     1                 .L0 
           15630            15630        0     1                 .L0 
           15680            15680        0     1                 .L0 
           156c0            156c0        0     1                 .L0 
           15710            15710        0     1                 .L0 
           15760            15760        0     1                 .L0 
           15790            15790        0     1                 .L0 
           157c0            157c0        0     1                 .L0 
           157f0            157f0        0     1                 .L0 
           15830            15830        0     1                 .L0 
           15870            15870        0     1                 .L0 
           158b0            158b0        0     1                 .L0 
           158f0            158f0        0     1                 .L0 
           15930            15930        0     1                 .L0 
           15970            15970        0     1                 .L0 
           159a0            159a0        0     1                 .L0 
           159d0            159d0        0     1                 .L0 
           15a00            15a00        0     1                 .L0 
           15a40            15a40        0     1                 .L0 
           15a80            15a80        0     1                 .L0 
           15ab0            15ab0        0     1                 .L0 
           15ae0            15ae0        0     1                 .L0 
           15b10            15b10        0     1                 .L0 
           15b40            15b40        0     1                 .L0 
           15b70            15b70        0     1                 .L0 
           15ba0            15ba0        0     1                 .L0 
           15c00            15c00        0     1                 .L0 
           15c60            15c60        0     1                 .L0 
           15c90            15c90        0     1                 .L0 
           15ce0            15ce0        0     1                 .L0 
           15d40            15d40        0     1                 .L0 
           15da0            15da0        0     1                 .L0 
           15e00            15e00        0     1                 .L0 
           15e30            15e30        0     1                 .L0 
           15e60            15e60        0     1                 .L0 
           15e90            15e90        0     1                 .L0 
           15ec0            15ec0        0     1                 .L0 
           15ef0            15ef0        0     1                 .L0 
           15f30            15f30        0     1                 .L0 
           15f60            15f60        0     1                 .L0 
           15f90            15f90        0     1                 .L0 
           15fc0            15fc0        0     1                 .L0 
           15ff0            15ff0        0     1                 .L0 
           16020            16020        0     1                 .L0 
           16050            16050        0     1                 .L0 
           16090            16090        0     1                 .L0 
           160d0            160d0        0     1                 .L0 
           16100            16100        0     1                 .L0 
           16130            16130        0     1                 .L0 
           16160            16160        0     1                 .L0 
           16190            16190        0     1                 .L0 
           161c0            161c0        0     1                 .L0 
           16200            16200        0     1                 .L0 
           16240            16240        0     1                 .L0 
           16270            16270        0     1                 .L0 
           162a0            162a0        0     1                 .L0 
           162e0            162e0        0     1                 .L0 
           16320            16320        0     1                 .L0 
           16350            16350        0     1                 .L0 
           163a0            163a0        0     1                 .L0 
           163d0            163d0        0     1                 .L0 
           16400            16400        0     1                 .L0 
           16430            16430        0     1                 .L0 
           16460            16460        0     1                 .L0 
           16490            16490        0     1                 .L0 
           164c0            164c0        0     1                 .L0 
           16500            16500        0     1                 .L0 
           16540            16540        0     1                 .L0 
           16570            16570        0     1                 .L0 
           165a0            165a0        0     1                 .L0 
           165d0            165d0        0     1                 .L0 
           16600            16600        0     1                 .L0 
           16630            16630        0     1                 .L0 
           16690            16690        0     1                 .L0 
           166f0            166f0        0     1                 .L0 
           16750            16750        0     1                 .L0 
           167b0            167b0        0     1                 .L0 
           16810            16810        0     1                 .L0 
           16870            16870        0     1                 .L0 
           168d0            168d0        0     1                 .L0 
           16910            16910        0     1                 .L0 
           16950            16950        0     1                 .L0 
           16980            16980        0     1                 .L0 
           169b0            169b0        0     1                 .L0 
           169e0            169e0        0     1                 .L0 
           16a40            16a40        0     1                 .L0 
           16aa0            16aa0        0     1                 .L0 
           16b00            16b00        0     1                 .L0 
           16b60            16b60        0     1                 .L0 
           16bc0            16bc0        0     1                 .L0 
           16c20            16c20        0     1                 .L0 
           16c80            16c80        0     1                 .L0 
           16cc0            16cc0        0     1                 .L0 
           16d00            16d00        0     1                 .L0 
           16d30            16d30        0     1                 .L0 
           16d60            16d60        0     1                 .L0 
           16d90            16d90        0     1                 .L0 
           16de0            16de0        0     1                 .L0 
           16e30            16e30        0     1                 .L0 
           16e80            16e80        0     1                 .L0 
           16ed0            16ed0        0     1                 .L0 
           16f20            16f20        0     1                 .L0 
           16f70            16f70        0     1                 .L0 
           16fc0            16fc0        0     1                 .L0 
           17000            17000        0     1                 .L0 
           17040            17040        0     1                 .L0 
           17070            17070        0     1                 .L0 
           170a0            170a0        0     1                 .L0 
           170d0            170d0        0     1                 .L0 
           17130            17130        0     1                 .L0 
           17190            17190        0     1                 .L0 
           171f0            171f0        0     1                 .L0 
           17250            17250        0     1                 .L0 
           172b0            172b0        0     1                 .L0 
           17310            17310        0     1                 .L0 
           17370            17370        0     1                 .L0 
           173b0            173b0        0     1                 .L0 
           173f0            173f0        0     1                 .L0 
           17430            17430        0     1                 .L0 
           17460            17460        0     1                 .L0 
           17490            17490        0     1                 .L0 
           174c0            174c0        0     1                 .L0 
           17520            17520        0     1                 .L0 
           17580            17580        0     1                 .L0 
           175e0            175e0        0     1                 .L0 
           17640            17640        0     1                 .L0 
           176a0            176a0        0     1                 .L0 
           17700            17700        0     1                 .L0 
           17760            17760        0     1                 .L0 
           177a0            177a0        0     1                 .L0 
           177e0            177e0        0     1                 .L0 
           17820            17820        0     1                 .L0 
           178d0            178d0        0     1                 .L0 
           17980            17980        0     1                 .L0 
           17a30            17a30        0     1                 .L0 
           17a60            17a60        0     1                 .L0 
           17a90            17a90        0     1                 .L0 
           17b40            17b40        0     1                 .L0 
           17bf0            17bf0        0     1                 .L0 
           17ca0            17ca0        0     1                 .L0 
           17cd0            17cd0        0     1                 .L0 
           17d00            17d00        0     1                 .L0 
           19980            19980       60     1         /home/ryoj/.rustup/toolchains/nightly-x86_64-unknown-linux-gnu/lib/rustlib/riscv64gc-unknown-none-elf/lib/libcompiler_builtins-12400e53a9c73834.rlib(compiler_builtins-12400e53a9c73834.compiler_builtins.98b006b987cce0b9-cgu.133.rcgu.o):(.debug_ranges)
           19980            19980        0     1                 .L0 
           19980            19980        0     1                 $d
           199b0            199b0        0     1                 .L0 
           199e0            199e0      250     1         /home/ryoj/.rustup/toolchains/nightly-x86_64-unknown-linux-gnu/lib/rustlib/riscv64gc-unknown-none-elf/lib/libcompiler_builtins-12400e53a9c73834.rlib(compiler_builtins-12400e53a9c73834.compiler_builtins.98b006b987cce0b9-cgu.010.rcgu.o):(.debug_ranges)
           199e0            199e0        0     1                 .L0 
           199e0            199e0        0     1                 $d
           19a10            19a10        0     1                 .L0 
           19a40            19a40        0     1                 .L0 
           19a70            19a70        0     1                 .L0 
           19aa0            19aa0        0     1                 .L0 
           19ad0            19ad0        0     1                 .L0 
           19b00            19b00        0     1                 .L0 
           19b30            19b30        0     1                 .L0 
           19b60            19b60        0     1                 .L0 
           19b90            19b90        0     1                 .L0 
           19bc0            19bc0        0     1                 .L0 
           19bf0            19bf0        0     1                 .L0 
           19c30            19c30       b0     1         /home/ryoj/.rustup/toolchains/nightly-x86_64-unknown-linux-gnu/lib/rustlib/riscv64gc-unknown-none-elf/lib/libcompiler_builtins-12400e53a9c73834.rlib(compiler_builtins-12400e53a9c73834.compiler_builtins.98b006b987cce0b9-cgu.219.rcgu.o):(.debug_ranges)
           19c30            19c30        0     1                 .L0 
           19c30            19c30        0     1                 $d
           19c60            19c60        0     1                 .L0 
           19c90            19c90        0     1                 .L0 
           19ce0            19ce0       f0     1         /home/ryoj/.rustup/toolchains/nightly-x86_64-unknown-linux-gnu/lib/rustlib/riscv64gc-unknown-none-elf/lib/libcompiler_builtins-12400e53a9c73834.rlib(compiler_builtins-12400e53a9c73834.compiler_builtins.98b006b987cce0b9-cgu.241.rcgu.o):(.debug_ranges)
           19ce0            19ce0        0     1                 .L0 
           19ce0            19ce0        0     1                 $d
           19d10            19d10        0     1                 .L0 
           19d40            19d40        0     1                 .L0 
           19d70            19d70        0     1                 .L0 
           19da0            19da0        0     1                 .L0 
           19dd0            19dd0       60     1         /home/ryoj/.rustup/toolchains/nightly-x86_64-unknown-linux-gnu/lib/rustlib/riscv64gc-unknown-none-elf/lib/libcompiler_builtins-12400e53a9c73834.rlib(compiler_builtins-12400e53a9c73834.compiler_builtins.98b006b987cce0b9-cgu.303.rcgu.o):(.debug_ranges)
           19dd0            19dd0        0     1                 .L0 
           19dd0            19dd0        0     1                 $d
           19e00            19e00        0     1                 .L0 
               0                0     c690     8 .symtab
               0                0     c690     8         <internal>:(.symtab)
               0                0       ae     1 .shstrtab
               0                0       ae     1         <internal>:(.shstrtab)
               0                0     2d3c     1 .strtab
               0                0     2d3c     1         <internal>:(.strtab)
