             VMA              LMA     Size Align Out     In      Symbol
               0                0  1000000     1 . = 0x1000000
         1000000          1000000      234     2 .text
         1000000          1000000       1a     2         /home/ryoj/github.com/okamotonr/mios/user/target/riscv64gc-unknown-none-elf/debug/deps/user-cec12b36b65e6162.blz3vm5tnk2n5nwg01qssbtuy.rcgu.o:(.text.start)
         1000000          1000000        0     1                 .L0 
         1000000          1000000        0     1                 .L0 
         1000000          1000000        0     1                 .Lpcrel_hi0
         1000000          1000000        0     1                 $x
         1000000          1000000        0     1                 .L0 
         1000000          1000000       1a     1                 start
         100001a          100001a        0     1                 .L0 
         100001a          100001a       20     2         /home/ryoj/github.com/okamotonr/mios/user/target/riscv64gc-unknown-none-elf/debug/deps/user-cec12b36b65e6162.4968xqg8x6teu1knf2mywhaxd.rcgu.o:(.text._ZN4core3str21_$LT$impl$u20$str$GT$5bytes17h9497c60a99f4bafbE)
         100001a          100001a        0     1                 .L0 
         100001a          100001a        0     1                 .L0 
         100001a          100001a        0     1                 $x
         100001a          100001a        0     1                 .L0 
         100001a          100001a       20     1                 core::str::_$LT$impl$u20$str$GT$::bytes::h9497c60a99f4bafb
         1000020          1000020        0     1                 .L0 
         1000020          1000020        0     1                 .L0 
         1000024          1000024        0     1                 .L0 
         1000024          1000024        0     1                 .L0 
         1000026          1000026        0     1                 .L0 
         1000026          1000026        0     1                 .L0 
         100002a          100002a        0     1                 .L0 
         100002a          100002a        0     1                 .L0 
         100002c          100002c        0     1                 .L0 
         100002c          100002c        0     1                 .L0 
         100002e          100002e        0     1                 .L0 
         100002e          100002e        0     1                 .L0 
         1000030          1000030        0     1                 .L0 
         1000032          1000032        0     1                 .L0 
         1000032          1000032        0     1                 .L0 
         1000036          1000036        0     1                 .L0 
         100003a          100003a        0     1                 .L0 
         100003a          100003a       2c     2         /home/ryoj/github.com/okamotonr/mios/user/target/riscv64gc-unknown-none-elf/debug/deps/user-cec12b36b65e6162.4j3ij9fqpvjs8zrox6jda4alc.rcgu.o:(.text._ZN4core3fmt9Arguments9new_const17h64572cc7cc86dfacE)
         100003a          100003a        0     1                 .L0 
         100003a          100003a        0     1                 .L0 
         100003a          100003a        0     1                 $x
         100003a          100003a        0     1                 .L0 
         100003a          100003a       2c     1                 core::fmt::Arguments::new_const::h64572cc7cc86dfac
         1000044          1000044        0     1                 .L0 
         100004a          100004a        0     1                 .Lpcrel_hi0
         1000062          1000062        0     1                 .L0 
         1000066          1000066        0     1                 .L0 
         1000066          1000066       70     2         /home/ryoj/github.com/okamotonr/mios/user/target/riscv64gc-unknown-none-elf/debug/deps/user-cec12b36b65e6162.8bj71k2hsx7sgv9ieqceddsht.rcgu.o:(.text._ZN91_$LT$core..slice..iter..Iter$LT$T$GT$$u20$as$u20$core..iter..traits..iterator..Iterator$GT$4next17hd5c6524abb782169E)
         1000066          1000066        0     1                 .L0 
         1000066          1000066        0     1                 .L0 
         1000066          1000066        0     1                 $x
         1000066          1000066        0     1                 .L0 
         1000066          1000066       70     1                 _$LT$core..slice..iter..Iter$LT$T$GT$$u20$as$u20$core..iter..traits..iterator..Iterator$GT$::next::hd5c6524abb782169
         100006e          100006e        0     1                 .L0 
         1000070          1000070        0     1                 .L0 
         1000072          1000072        0     1                 .L0 
         1000074          1000074        0     1                 .L0 
         1000076          1000076        0     1                 .L0 
         100007c          100007c        0     1                 .L0 
         1000080          1000080        0     1                 .L0 
         1000080          1000080        0     1                 .L0 
         1000084          1000084        0     1                 .L0 
         1000086          1000086        0     1                 .L0 
         1000086          1000086        0     1                 .L0 
         100008a          100008a        0     1                 .L0 
         100008a          100008a        0     1                 .L0 
         100008c          100008c        0     1                 .L0 
         1000096          1000096        0     1                 .L0 
         1000098          1000098        0     1                 .L0 
         10000a2          10000a2        0     1                 .L0 
         10000a4          10000a4        0     1                 .L0 
         10000a4          10000a4        0     1                 .L0 
         10000a8          10000a8        0     1                 .L0 
         10000a8          10000a8        0     1                 .L0 
         10000aa          10000aa        0     1                 .L0 
         10000aa          10000aa        0     1                 .L0 
         10000ac          10000ac        0     1                 .L0 
         10000ae          10000ae        0     1                 .L0 
         10000b0          10000b0        0     1                 .L0 
         10000b2          10000b2        0     1                 .L0 
         10000b2          10000b2        0     1                 .L0 
         10000b8          10000b8        0     1                 .L0 
         10000b8          10000b8        0     1                 .L0 
         10000ba          10000ba        0     1                 .L0 
         10000ba          10000ba        0     1                 .L0 
         10000be          10000be        0     1                 .L0 
         10000be          10000be        0     1                 .L0 
         10000c0          10000c0        0     1                 .L0 
         10000c0          10000c0        0     1                 .L0 
         10000c2          10000c2        0     1                 .L0 
         10000c2          10000c2        0     1                 .L0 
         10000c4          10000c4        0     1                 .L0 
         10000c4          10000c4        0     1                 .L0 
         10000c6          10000c6        0     1                 .L0 
         10000c8          10000c8        0     1                 .L0 
         10000c8          10000c8        0     1                 .L0 
         10000cc          10000cc        0     1                 .L0 
         10000cc          10000cc        0     1                 .L0 
         10000ce          10000ce        0     1                 .L0 
         10000d0          10000d0        0     1                 .L0 
         10000d2          10000d2        0     1                 .L0 
         10000d6          10000d6        0     1                 .L0 
         10000d6          10000d6        0     1                 .L0 
         10000d6          10000d6        0     1                 .L0 
         10000d6          10000d6        8     2         /home/ryoj/github.com/okamotonr/mios/user/target/riscv64gc-unknown-none-elf/debug/deps/user-cec12b36b65e6162.blz3vm5tnk2n5nwg01qssbtuy.rcgu.o:(.text.rust_begin_unwind)
         10000d6          10000d6        0     1                 .L0 
         10000d6          10000d6        0     1                 .L0 
         10000d6          10000d6        0     1                 $x
         10000d6          10000d6        0     1                 .L0 
         10000d6          10000d6        8     1                 rust_begin_unwind
         10000da          10000da        0     1                 .L0 
         10000de          10000de        0     1                 .L0 
         10000de          10000de        0     1                 .L0 
         10000de          10000de        0     1                 .L0 
         10000de          10000de       2a     2         /home/ryoj/github.com/okamotonr/mios/user/target/riscv64gc-unknown-none-elf/debug/deps/user-cec12b36b65e6162.blz3vm5tnk2n5nwg01qssbtuy.rcgu.o:(.text.exit)
         10000de          10000de        0     1                 .L0 
         10000de          10000de        0     1                 .L0 
         10000de          10000de        0     1                 $x
         10000de          10000de        0     1                 .L0 
         10000de          10000de       2a     1                 exit
         10000e2          10000e2        0     1                 .Lpcrel_hi1
         10000e2          10000e2        0     1                 .L0 
         10000f8          10000f8        0     1                 .Lpcrel_hi2
         1000108          1000108        0     1                 .L0 
         1000108          1000108       5c     2         /home/ryoj/github.com/okamotonr/mios/user/target/riscv64gc-unknown-none-elf/debug/deps/user-cec12b36b65e6162.cahjwisf1i9xikuj3omtw9z2o.rcgu.o:(.text.main)
         1000108          1000108        0     1                 .L0 
         1000108          1000108        0     1                 .L0 
         1000108          1000108        0     1                 $x
         1000108          1000108        0     1                 .L0 
         1000108          1000108       5c     1                 main
         100010c          100010c        0     1                 .Lpcrel_hi0
         100010c          100010c        0     1                 .L0 
         100010c          100010c        0     1                 .L0 
         100011a          100011a        0     1                 .L0 
         100012e          100012e        0     1                 .L0 
         1000130          1000130        0     1                 .L0 
         1000132          1000132        0     1                 .L0 
         100014e          100014e        0     1                 .L0 
         100014e          100014e        0     1                 .L0 
         1000152          1000152        0     1                 .L0 
         1000152          1000152        0     1                 .L0 
         100015a          100015a        0     1                 .L0 
         100015a          100015a        0     1                 .L0 
         1000164          1000164        0     1                 .L0 
         1000164          1000164        0     1                 .L0 
         1000164          1000164        0     1                 .L0 
         1000164          1000164        0     1                 .L0 
         1000164          1000164       58     2         /home/ryoj/github.com/okamotonr/mios/user/target/riscv64gc-unknown-none-elf/debug/deps/user-cec12b36b65e6162.cp2b6x3w3aghebxqi4nvaltjp.rcgu.o:(.text._ZN81_$LT$core..str..iter..Bytes$u20$as$u20$core..iter..traits..iterator..Iterator$GT$4next17h3f9ceb800531e8f7E)
         1000164          1000164        0     1                 .L0 
         1000164          1000164        0     1                 .L0 
         1000164          1000164        0     1                 $x
         1000164          1000164        0     1                 .L0 
         1000164          1000164       58     1                 _$LT$core..str..iter..Bytes$u20$as$u20$core..iter..traits..iterator..Iterator$GT$::next::h3f9ceb800531e8f7
         100016a          100016a        0     1                 .L0 
         100016c          100016c        0     1                 .L0 
         100016c          100016c        0     1                 .L0 
         1000176          1000176        0     1                 .L0 
         1000176          1000176        0     1                 .L0 
         1000178          1000178        0     1                 .L0 
         100017c          100017c        0     1                 .Lpcrel_hi0
         100017c          100017c        0     1                 .L0 
         1000198          1000198        0     1                 .L0 
         10001a2          10001a2        0     1                 .L0 
         10001a2          10001a2        0     1                 .L0 
         10001ac          10001ac        0     1                 .L0 
         10001ae          10001ae        0     1                 .L0 
         10001ae          10001ae        0     1                 .L0 
         10001b8          10001b8        0     1                 .L0 
         10001bc          10001bc        0     1                 .L0 
         10001bc          10001bc        0     1                 .L0 
         10001bc          10001bc        0     1                 .L0 
         10001bc          10001bc        a     2         /home/ryoj/github.com/okamotonr/mios/user/target/riscv64gc-unknown-none-elf/debug/deps/user-cec12b36b65e6162.eddahzrzatnarxwiuwk2wfv4y.rcgu.o:(.text._ZN63_$LT$I$u20$as$u20$core..iter..traits..collect..IntoIterator$GT$9into_iter17h6c2166e6fc8f3447E)
         10001bc          10001bc        0     1                 .L0 
         10001bc          10001bc        0     1                 .L0 
         10001bc          10001bc        0     1                 $x
         10001bc          10001bc        0     1                 .L0 
         10001bc          10001bc        a     1                 _$LT$I$u20$as$u20$core..iter..traits..collect..IntoIterator$GT$::into_iter::h6c2166e6fc8f3447
         10001c2          10001c2        0     1                 .L0 
         10001c6          10001c6        0     1                 .L0 
         10001c6          10001c6       2a     2         /home/ryoj/github.com/okamotonr/mios/user/target/riscv64gc-unknown-none-elf/debug/deps/libcommon-970cb75fd45c8853.rlib(common-970cb75fd45c8853.as7p77h8vufo2nppwid9f3ol0.rcgu.o):(.text.syscall)
         10001c6          10001c6        0     1                 .L0 
         10001c6          10001c6        0     1                 .L0 
         10001c6          10001c6        0     1                 $x
         10001c6          10001c6        0     1                 .L0 
         10001c6          10001c6       2a     1                 syscall
         10001e2          10001e2        0     1                 .L0 
         10001e2          10001e2        0     1                 .L0 
         10001e4          10001e4        0     1                 .L0 
         10001ea          10001ea        0     1                 .L0 
         10001ec          10001ec        0     1                 .L0 
         10001f0          10001f0        0     1                 .L0 
         10001f0          10001f0       22     2         /home/ryoj/github.com/okamotonr/mios/user/target/riscv64gc-unknown-none-elf/debug/deps/libcommon-970cb75fd45c8853.rlib(common-970cb75fd45c8853.as7p77h8vufo2nppwid9f3ol0.rcgu.o):(.text.put_char)
         10001f0          10001f0        0     1                 .L0 
         10001f0          10001f0        0     1                 .L0 
         10001f0          10001f0        0     1                 $x
         10001f0          10001f0        0     1                 .L0 
         10001f0          10001f0       22     1                 put_char
         10001f8          10001f8        0     1                 .L0 
         10001fa          10001fa        0     1                 .L0 
         1000200          1000200        0     1                 .L0 
         100020e          100020e        0     1                 .L0 
         1000212          1000212        0     1                 .L0 
         1000212          1000212       22     2         /home/ryoj/.rustup/toolchains/nightly-x86_64-unknown-linux-gnu/lib/rustlib/riscv64gc-unknown-none-elf/lib/libcore-b7430222903c4bab.rlib(core-b7430222903c4bab.core.448b4ae190475ef3-cgu.0.rcgu.o):(.text.unlikely._ZN4core9panicking9panic_fmt17h4fd32236e79774d4E)
         1000212          1000212        0     1                 .L0 
         1000212          1000212        0     1                 .L0 
         1000212          1000212        0     1                 $x
         1000212          1000212        0     1                 .L0 
         1000212          1000212       22     1                 core::panicking::panic_fmt::h4fd32236e79774d4
         100021a          100021a        0     1                 .L0 
         100021a          100021a        0     1                 .L0 
         1000228          1000228        0     1                 .L0 
         1000234          1000234        0     1                 .L0 
         1000238          1000238       58     8 .rodata
         1000238          1000238       10     8         <internal>:(.rodata.cst16)
         1000248          1000248        4     1         <internal>:(.rodata.cst4)
         1000250          1000250       10     8         /home/ryoj/github.com/okamotonr/mios/user/target/riscv64gc-unknown-none-elf/debug/deps/user-cec12b36b65e6162.blz3vm5tnk2n5nwg01qssbtuy.rcgu.o:(.rodata..L__unnamed_1)
         1000250          1000250       10     1                 .L__unnamed_1
         1000250          1000250        0     1                 $d
         1000260          1000260        b     1         /home/ryoj/github.com/okamotonr/mios/user/target/riscv64gc-unknown-none-elf/debug/deps/user-cec12b36b65e6162.blz3vm5tnk2n5nwg01qssbtuy.rcgu.o:(.rodata..L__unnamed_4)
         1000260          1000260        b     1                 .L__unnamed_4
         1000260          1000260        0     1                 $d
         1000270          1000270       18     8         /home/ryoj/github.com/okamotonr/mios/user/target/riscv64gc-unknown-none-elf/debug/deps/user-cec12b36b65e6162.blz3vm5tnk2n5nwg01qssbtuy.rcgu.o:(.rodata..L__unnamed_2)
         1000270          1000270       18     1                 .L__unnamed_2
         1000270          1000270        0     1                 $d
         1000288          1000288        6     1         /home/ryoj/github.com/okamotonr/mios/user/target/riscv64gc-unknown-none-elf/debug/deps/user-cec12b36b65e6162.cahjwisf1i9xikuj3omtw9z2o.rcgu.o:(.rodata..L__unnamed_1)
         1000288          1000288        6     1                 .L__unnamed_1
         1000288          1000288        0     1                 $d
         100028e          100028e        2     1         /home/ryoj/github.com/okamotonr/mios/user/target/riscv64gc-unknown-none-elf/debug/deps/user-cec12b36b65e6162.cp2b6x3w3aghebxqi4nvaltjp.rcgu.o:(.rodata..L__unnamed_1)
         100028e          100028e        2     1                 .L__unnamed_1
         100028e          100028e        0     1                 $d
         1000290          1000290       38     8 .eh_frame
         1000290          1000290       14     1         /home/ryoj/.rustup/toolchains/nightly-x86_64-unknown-linux-gnu/lib/rustlib/riscv64gc-unknown-none-elf/lib/libcore-b7430222903c4bab.rlib(core-b7430222903c4bab.core.448b4ae190475ef3-cgu.0.rcgu.o):(.eh_frame+0x0)
         10002a4          10002a4       20     1         /home/ryoj/.rustup/toolchains/nightly-x86_64-unknown-linux-gnu/lib/rustlib/riscv64gc-unknown-none-elf/lib/libcore-b7430222903c4bab.rlib(core-b7430222903c4bab.core.448b4ae190475ef3-cgu.0.rcgu.o):(.eh_frame+0x107c)
         10002c8          10002c8    10008     4 .bss
         10002c8          10002c8        8     1         . = ALIGN ( 16 )
         10002d0          10002d0    10000     1         . += 64 * 1024
         10102d0          10102d0        0     1         __stack_top = .
         10102d0          10102d0        0     1         
               0                0      fb4     1 .debug_abbrev
               0                0      14e     1         /home/ryoj/github.com/okamotonr/mios/user/target/riscv64gc-unknown-none-elf/debug/deps/user-cec12b36b65e6162.4968xqg8x6teu1knf2mywhaxd.rcgu.o:(.debug_abbrev)
               0                0        0     1                 $d
             14e              14e      127     1         /home/ryoj/github.com/okamotonr/mios/user/target/riscv64gc-unknown-none-elf/debug/deps/user-cec12b36b65e6162.4j3ij9fqpvjs8zrox6jda4alc.rcgu.o:(.debug_abbrev)
             14e              14e        0     1                 $d
             275              275      1b2     1         /home/ryoj/github.com/okamotonr/mios/user/target/riscv64gc-unknown-none-elf/debug/deps/user-cec12b36b65e6162.8bj71k2hsx7sgv9ieqceddsht.rcgu.o:(.debug_abbrev)
             275              275        0     1                 $d
             427              427      148     1         /home/ryoj/github.com/okamotonr/mios/user/target/riscv64gc-unknown-none-elf/debug/deps/user-cec12b36b65e6162.blz3vm5tnk2n5nwg01qssbtuy.rcgu.o:(.debug_abbrev)
             427              427        0     1                 $d
             56f              56f       bf     1         /home/ryoj/github.com/okamotonr/mios/user/target/riscv64gc-unknown-none-elf/debug/deps/user-cec12b36b65e6162.cahjwisf1i9xikuj3omtw9z2o.rcgu.o:(.debug_abbrev)
             56f              56f        0     1                 $d
             62e              62e      146     1         /home/ryoj/github.com/okamotonr/mios/user/target/riscv64gc-unknown-none-elf/debug/deps/user-cec12b36b65e6162.cp2b6x3w3aghebxqi4nvaltjp.rcgu.o:(.debug_abbrev)
             62e              62e        0     1                 $d
             774              774       7c     1         /home/ryoj/github.com/okamotonr/mios/user/target/riscv64gc-unknown-none-elf/debug/deps/user-cec12b36b65e6162.eddahzrzatnarxwiuwk2wfv4y.rcgu.o:(.debug_abbrev)
             774              774        0     1                 $d
             7f0              7f0       91     1         /home/ryoj/github.com/okamotonr/mios/user/target/riscv64gc-unknown-none-elf/debug/deps/libcommon-970cb75fd45c8853.rlib(common-970cb75fd45c8853.as7p77h8vufo2nppwid9f3ol0.rcgu.o):(.debug_abbrev)
             7f0              7f0        0     1                 $d
             881              881      2e9     1         /home/ryoj/.rustup/toolchains/nightly-x86_64-unknown-linux-gnu/lib/rustlib/riscv64gc-unknown-none-elf/lib/libcore-b7430222903c4bab.rlib(core-b7430222903c4bab.core.448b4ae190475ef3-cgu.0.rcgu.o):(.debug_abbrev)
             881              881        0     1                 $d
             b6a              b6a       fa     1         /home/ryoj/.rustup/toolchains/nightly-x86_64-unknown-linux-gnu/lib/rustlib/riscv64gc-unknown-none-elf/lib/libcompiler_builtins-12400e53a9c73834.rlib(compiler_builtins-12400e53a9c73834.compiler_builtins.2b04ae1fd906da09-cgu.125.rcgu.o):(.debug_abbrev)
             b6a              b6a        0     1                 $d
             c64              c64       c7     1         /home/ryoj/.rustup/toolchains/nightly-x86_64-unknown-linux-gnu/lib/rustlib/riscv64gc-unknown-none-elf/lib/libcompiler_builtins-12400e53a9c73834.rlib(compiler_builtins-12400e53a9c73834.compiler_builtins.2b04ae1fd906da09-cgu.176.rcgu.o):(.debug_abbrev)
             c64              c64        0     1                 $d
             d2b              d2b       bd     1         /home/ryoj/.rustup/toolchains/nightly-x86_64-unknown-linux-gnu/lib/rustlib/riscv64gc-unknown-none-elf/lib/libcompiler_builtins-12400e53a9c73834.rlib(compiler_builtins-12400e53a9c73834.compiler_builtins.2b04ae1fd906da09-cgu.188.rcgu.o):(.debug_abbrev)
             d2b              d2b        0     1                 $d
             de8              de8       7b     1         /home/ryoj/.rustup/toolchains/nightly-x86_64-unknown-linux-gnu/lib/rustlib/riscv64gc-unknown-none-elf/lib/libcompiler_builtins-12400e53a9c73834.rlib(compiler_builtins-12400e53a9c73834.compiler_builtins.2b04ae1fd906da09-cgu.213.rcgu.o):(.debug_abbrev)
             de8              de8        0     1                 $d
             e63              e63       5f     1         /home/ryoj/.rustup/toolchains/nightly-x86_64-unknown-linux-gnu/lib/rustlib/riscv64gc-unknown-none-elf/lib/libcompiler_builtins-12400e53a9c73834.rlib(compiler_builtins-12400e53a9c73834.compiler_builtins.2b04ae1fd906da09-cgu.263.rcgu.o):(.debug_abbrev)
             e63              e63        0     1                 $d
             ec2              ec2       f2     1         /home/ryoj/.rustup/toolchains/nightly-x86_64-unknown-linux-gnu/lib/rustlib/riscv64gc-unknown-none-elf/lib/libcompiler_builtins-12400e53a9c73834.rlib(compiler_builtins-12400e53a9c73834.compiler_builtins.2b04ae1fd906da09-cgu.010.rcgu.o):(.debug_abbrev)
             ec2              ec2        0     1                 $d
               0                0    244e4     1 .debug_info
               0                0      503     1         /home/ryoj/github.com/okamotonr/mios/user/target/riscv64gc-unknown-none-elf/debug/deps/user-cec12b36b65e6162.4968xqg8x6teu1knf2mywhaxd.rcgu.o:(.debug_info)
               0                0        0     1                 .L0 
               0                0        0     1                 $d
             503              503      56f     1         /home/ryoj/github.com/okamotonr/mios/user/target/riscv64gc-unknown-none-elf/debug/deps/user-cec12b36b65e6162.4j3ij9fqpvjs8zrox6jda4alc.rcgu.o:(.debug_info)
             503              503        0     1                 .L0 
             503              503        0     1                 $d
             a72              a72      4de     1         /home/ryoj/github.com/okamotonr/mios/user/target/riscv64gc-unknown-none-elf/debug/deps/user-cec12b36b65e6162.8bj71k2hsx7sgv9ieqceddsht.rcgu.o:(.debug_info)
             a72              a72        0     1                 .L0 
             a72              a72        0     1                 $d
             f50              f50      61a     1         /home/ryoj/github.com/okamotonr/mios/user/target/riscv64gc-unknown-none-elf/debug/deps/user-cec12b36b65e6162.blz3vm5tnk2n5nwg01qssbtuy.rcgu.o:(.debug_info)
             f50              f50        0     1                 .L0 
             f50              f50        0     1                 $d
            156a             156a      1c5     1         /home/ryoj/github.com/okamotonr/mios/user/target/riscv64gc-unknown-none-elf/debug/deps/user-cec12b36b65e6162.cahjwisf1i9xikuj3omtw9z2o.rcgu.o:(.debug_info)
            156a             156a        0     1                 .L0 
            156a             156a        0     1                 $d
            172f             172f      313     1         /home/ryoj/github.com/okamotonr/mios/user/target/riscv64gc-unknown-none-elf/debug/deps/user-cec12b36b65e6162.cp2b6x3w3aghebxqi4nvaltjp.rcgu.o:(.debug_info)
            172f             172f        0     1                 .L0 
            172f             172f        0     1                 $d
            1a42             1a42      170     1         /home/ryoj/github.com/okamotonr/mios/user/target/riscv64gc-unknown-none-elf/debug/deps/user-cec12b36b65e6162.eddahzrzatnarxwiuwk2wfv4y.rcgu.o:(.debug_info)
            1a42             1a42        0     1                 .L0 
            1a42             1a42        0     1                 $d
            1bb2             1bb2       f2     1         /home/ryoj/github.com/okamotonr/mios/user/target/riscv64gc-unknown-none-elf/debug/deps/libcommon-970cb75fd45c8853.rlib(common-970cb75fd45c8853.as7p77h8vufo2nppwid9f3ol0.rcgu.o):(.debug_info)
            1bb2             1bb2        0     1                 .L0 
            1bb2             1bb2        0     1                 $d
            1ca4             1ca4    21838     1         /home/ryoj/.rustup/toolchains/nightly-x86_64-unknown-linux-gnu/lib/rustlib/riscv64gc-unknown-none-elf/lib/libcore-b7430222903c4bab.rlib(core-b7430222903c4bab.core.448b4ae190475ef3-cgu.0.rcgu.o):(.debug_info)
            1ca4             1ca4        0     1                 .L0 
            1ca4             1ca4        0     1                 $d
           234dc            234dc      3e5     1         /home/ryoj/.rustup/toolchains/nightly-x86_64-unknown-linux-gnu/lib/rustlib/riscv64gc-unknown-none-elf/lib/libcompiler_builtins-12400e53a9c73834.rlib(compiler_builtins-12400e53a9c73834.compiler_builtins.2b04ae1fd906da09-cgu.125.rcgu.o):(.debug_info)
           234dc            234dc        0     1                 .L0 
           234dc            234dc        0     1                 $d
           238c1            238c1      2e4     1         /home/ryoj/.rustup/toolchains/nightly-x86_64-unknown-linux-gnu/lib/rustlib/riscv64gc-unknown-none-elf/lib/libcompiler_builtins-12400e53a9c73834.rlib(compiler_builtins-12400e53a9c73834.compiler_builtins.2b04ae1fd906da09-cgu.176.rcgu.o):(.debug_info)
           238c1            238c1        0     1                 .L0 
           238c1            238c1        0     1                 $d
           23ba5            23ba5      295     1         /home/ryoj/.rustup/toolchains/nightly-x86_64-unknown-linux-gnu/lib/rustlib/riscv64gc-unknown-none-elf/lib/libcompiler_builtins-12400e53a9c73834.rlib(compiler_builtins-12400e53a9c73834.compiler_builtins.2b04ae1fd906da09-cgu.188.rcgu.o):(.debug_info)
           23ba5            23ba5        0     1                 .L0 
           23ba5            23ba5        0     1                 $d
           23e3a            23e3a       b9     1         /home/ryoj/.rustup/toolchains/nightly-x86_64-unknown-linux-gnu/lib/rustlib/riscv64gc-unknown-none-elf/lib/libcompiler_builtins-12400e53a9c73834.rlib(compiler_builtins-12400e53a9c73834.compiler_builtins.2b04ae1fd906da09-cgu.213.rcgu.o):(.debug_info)
           23e3a            23e3a        0     1                 .L0 
           23e3a            23e3a        0     1                 $d
           23ef3            23ef3       ad     1         /home/ryoj/.rustup/toolchains/nightly-x86_64-unknown-linux-gnu/lib/rustlib/riscv64gc-unknown-none-elf/lib/libcompiler_builtins-12400e53a9c73834.rlib(compiler_builtins-12400e53a9c73834.compiler_builtins.2b04ae1fd906da09-cgu.263.rcgu.o):(.debug_info)
           23ef3            23ef3        0     1                 .L0 
           23ef3            23ef3        0     1                 $d
           23fa0            23fa0      544     1         /home/ryoj/.rustup/toolchains/nightly-x86_64-unknown-linux-gnu/lib/rustlib/riscv64gc-unknown-none-elf/lib/libcompiler_builtins-12400e53a9c73834.rlib(compiler_builtins-12400e53a9c73834.compiler_builtins.2b04ae1fd906da09-cgu.010.rcgu.o):(.debug_info)
           23fa0            23fa0        0     1                 .L0 
           23fa0            23fa0        0     1                 $d
               0                0     1f80     1 .debug_aranges
               0                0       30     1         /home/ryoj/github.com/okamotonr/mios/user/target/riscv64gc-unknown-none-elf/debug/deps/user-cec12b36b65e6162.4968xqg8x6teu1knf2mywhaxd.rcgu.o:(.debug_aranges)
               0                0        0     1                 $d
              30               30       30     1         /home/ryoj/github.com/okamotonr/mios/user/target/riscv64gc-unknown-none-elf/debug/deps/user-cec12b36b65e6162.4j3ij9fqpvjs8zrox6jda4alc.rcgu.o:(.debug_aranges)
              30               30        0     1                 $d
              60               60       30     1         /home/ryoj/github.com/okamotonr/mios/user/target/riscv64gc-unknown-none-elf/debug/deps/user-cec12b36b65e6162.8bj71k2hsx7sgv9ieqceddsht.rcgu.o:(.debug_aranges)
              60               60        0     1                 $d
              90               90       50     1         /home/ryoj/github.com/okamotonr/mios/user/target/riscv64gc-unknown-none-elf/debug/deps/user-cec12b36b65e6162.blz3vm5tnk2n5nwg01qssbtuy.rcgu.o:(.debug_aranges)
              90               90        0     1                 $d
              e0               e0       30     1         /home/ryoj/github.com/okamotonr/mios/user/target/riscv64gc-unknown-none-elf/debug/deps/user-cec12b36b65e6162.cahjwisf1i9xikuj3omtw9z2o.rcgu.o:(.debug_aranges)
              e0               e0        0     1                 $d
             110              110       30     1         /home/ryoj/github.com/okamotonr/mios/user/target/riscv64gc-unknown-none-elf/debug/deps/user-cec12b36b65e6162.cp2b6x3w3aghebxqi4nvaltjp.rcgu.o:(.debug_aranges)
             110              110        0     1                 $d
             140              140       30     1         /home/ryoj/github.com/okamotonr/mios/user/target/riscv64gc-unknown-none-elf/debug/deps/user-cec12b36b65e6162.eddahzrzatnarxwiuwk2wfv4y.rcgu.o:(.debug_aranges)
             140              140        0     1                 $d
             170              170       40     1         /home/ryoj/github.com/okamotonr/mios/user/target/riscv64gc-unknown-none-elf/debug/deps/libcommon-970cb75fd45c8853.rlib(common-970cb75fd45c8853.as7p77h8vufo2nppwid9f3ol0.rcgu.o):(.debug_aranges)
             170              170        0     1                 $d
             1b0              1b0     1c90     1         /home/ryoj/.rustup/toolchains/nightly-x86_64-unknown-linux-gnu/lib/rustlib/riscv64gc-unknown-none-elf/lib/libcore-b7430222903c4bab.rlib(core-b7430222903c4bab.core.448b4ae190475ef3-cgu.0.rcgu.o):(.debug_aranges)
             1b0              1b0        0     1                 $d
            1e40             1e40       30     1         /home/ryoj/.rustup/toolchains/nightly-x86_64-unknown-linux-gnu/lib/rustlib/riscv64gc-unknown-none-elf/lib/libcompiler_builtins-12400e53a9c73834.rlib(compiler_builtins-12400e53a9c73834.compiler_builtins.2b04ae1fd906da09-cgu.125.rcgu.o):(.debug_aranges)
            1e40             1e40        0     1                 $d
            1e70             1e70       30     1         /home/ryoj/.rustup/toolchains/nightly-x86_64-unknown-linux-gnu/lib/rustlib/riscv64gc-unknown-none-elf/lib/libcompiler_builtins-12400e53a9c73834.rlib(compiler_builtins-12400e53a9c73834.compiler_builtins.2b04ae1fd906da09-cgu.176.rcgu.o):(.debug_aranges)
            1e70             1e70        0     1                 $d
            1ea0             1ea0       30     1         /home/ryoj/.rustup/toolchains/nightly-x86_64-unknown-linux-gnu/lib/rustlib/riscv64gc-unknown-none-elf/lib/libcompiler_builtins-12400e53a9c73834.rlib(compiler_builtins-12400e53a9c73834.compiler_builtins.2b04ae1fd906da09-cgu.188.rcgu.o):(.debug_aranges)
            1ea0             1ea0        0     1                 $d
            1ed0             1ed0       30     1         /home/ryoj/.rustup/toolchains/nightly-x86_64-unknown-linux-gnu/lib/rustlib/riscv64gc-unknown-none-elf/lib/libcompiler_builtins-12400e53a9c73834.rlib(compiler_builtins-12400e53a9c73834.compiler_builtins.2b04ae1fd906da09-cgu.213.rcgu.o):(.debug_aranges)
            1ed0             1ed0        0     1                 $d
            1f00             1f00       30     1         /home/ryoj/.rustup/toolchains/nightly-x86_64-unknown-linux-gnu/lib/rustlib/riscv64gc-unknown-none-elf/lib/libcompiler_builtins-12400e53a9c73834.rlib(compiler_builtins-12400e53a9c73834.compiler_builtins.2b04ae1fd906da09-cgu.263.rcgu.o):(.debug_aranges)
            1f00             1f00        0     1                 $d
            1f30             1f30       50     1         /home/ryoj/.rustup/toolchains/nightly-x86_64-unknown-linux-gnu/lib/rustlib/riscv64gc-unknown-none-elf/lib/libcompiler_builtins-12400e53a9c73834.rlib(compiler_builtins-12400e53a9c73834.compiler_builtins.2b04ae1fd906da09-cgu.010.rcgu.o):(.debug_aranges)
            1f30             1f30        0     1                 $d
               0                0    384a1     1 .debug_str
               0                0    384a1     1         <internal>:(.debug_str)
               0                0       93     1 .comment
               0                0       93     1         <internal>:(.comment)
               0                0       47     1 .riscv.attributes
               0                0       47     1         <internal>:(.riscv.attributes)
               0                0      218     8 .debug_frame
               0                0       38     8         /home/ryoj/github.com/okamotonr/mios/user/target/riscv64gc-unknown-none-elf/debug/deps/user-cec12b36b65e6162.4968xqg8x6teu1knf2mywhaxd.rcgu.o:(.debug_frame)
               0                0        0     1                 .L0 
               0                0        0     1                 $d
              38               38       38     8         /home/ryoj/github.com/okamotonr/mios/user/target/riscv64gc-unknown-none-elf/debug/deps/user-cec12b36b65e6162.4j3ij9fqpvjs8zrox6jda4alc.rcgu.o:(.debug_frame)
              38               38        0     1                 .L0 
              38               38        0     1                 $d
              70               70       38     8         /home/ryoj/github.com/okamotonr/mios/user/target/riscv64gc-unknown-none-elf/debug/deps/user-cec12b36b65e6162.8bj71k2hsx7sgv9ieqceddsht.rcgu.o:(.debug_frame)
              70               70        0     1                 .L0 
              70               70        0     1                 $d
              a8               a8       70     8         /home/ryoj/github.com/okamotonr/mios/user/target/riscv64gc-unknown-none-elf/debug/deps/user-cec12b36b65e6162.blz3vm5tnk2n5nwg01qssbtuy.rcgu.o:(.debug_frame)
              a8               a8        0     1                 .L0 
              a8               a8        0     1                 $d
             118              118       38     8         /home/ryoj/github.com/okamotonr/mios/user/target/riscv64gc-unknown-none-elf/debug/deps/user-cec12b36b65e6162.cahjwisf1i9xikuj3omtw9z2o.rcgu.o:(.debug_frame)
             118              118        0     1                 .L0 
             118              118        0     1                 $d
             150              150       38     8         /home/ryoj/github.com/okamotonr/mios/user/target/riscv64gc-unknown-none-elf/debug/deps/user-cec12b36b65e6162.cp2b6x3w3aghebxqi4nvaltjp.rcgu.o:(.debug_frame)
             150              150        0     1                 .L0 
             150              150        0     1                 $d
             188              188       38     8         /home/ryoj/github.com/okamotonr/mios/user/target/riscv64gc-unknown-none-elf/debug/deps/user-cec12b36b65e6162.eddahzrzatnarxwiuwk2wfv4y.rcgu.o:(.debug_frame)
             188              188        0     1                 .L0 
             188              188        0     1                 $d
             1c0              1c0       58     8         /home/ryoj/github.com/okamotonr/mios/user/target/riscv64gc-unknown-none-elf/debug/deps/libcommon-970cb75fd45c8853.rlib(common-970cb75fd45c8853.as7p77h8vufo2nppwid9f3ol0.rcgu.o):(.debug_frame)
             1c0              1c0        0     1                 .L0 
             1c0              1c0        0     1                 $d
               0                0    1fbff     1 .debug_line
               0                0      206     1         /home/ryoj/github.com/okamotonr/mios/user/target/riscv64gc-unknown-none-elf/debug/deps/user-cec12b36b65e6162.4968xqg8x6teu1knf2mywhaxd.rcgu.o:(.debug_line)
               0                0        0     1                 .Lline_table_start0
               0                0        0     1                 $d
             206              206       b8     1         /home/ryoj/github.com/okamotonr/mios/user/target/riscv64gc-unknown-none-elf/debug/deps/user-cec12b36b65e6162.4j3ij9fqpvjs8zrox6jda4alc.rcgu.o:(.debug_line)
             206              206        0     1                 .Lline_table_start0
             206              206        0     1                 $d
             2be              2be      261     1         /home/ryoj/github.com/okamotonr/mios/user/target/riscv64gc-unknown-none-elf/debug/deps/user-cec12b36b65e6162.8bj71k2hsx7sgv9ieqceddsht.rcgu.o:(.debug_line)
             2be              2be        0     1                 .Lline_table_start0
             2be              2be        0     1                 $d
             51f              51f       7e     1         /home/ryoj/github.com/okamotonr/mios/user/target/riscv64gc-unknown-none-elf/debug/deps/user-cec12b36b65e6162.blz3vm5tnk2n5nwg01qssbtuy.rcgu.o:(.debug_line)
             51f              51f        0     1                 .Lline_table_start0
             51f              51f        0     1                 $d
             59d              59d       7f     1         /home/ryoj/github.com/okamotonr/mios/user/target/riscv64gc-unknown-none-elf/debug/deps/user-cec12b36b65e6162.cahjwisf1i9xikuj3omtw9z2o.rcgu.o:(.debug_line)
             59d              59d        0     1                 .Lline_table_start0
             59d              59d        0     1                 $d
             61c              61c      1f5     1         /home/ryoj/github.com/okamotonr/mios/user/target/riscv64gc-unknown-none-elf/debug/deps/user-cec12b36b65e6162.cp2b6x3w3aghebxqi4nvaltjp.rcgu.o:(.debug_line)
             61c              61c        0     1                 .Lline_table_start0
             61c              61c        0     1                 $d
             811              811       bc     1         /home/ryoj/github.com/okamotonr/mios/user/target/riscv64gc-unknown-none-elf/debug/deps/user-cec12b36b65e6162.eddahzrzatnarxwiuwk2wfv4y.rcgu.o:(.debug_line)
             811              811        0     1                 .Lline_table_start0
             811              811        0     1                 $d
             8cd              8cd       98     1         /home/ryoj/github.com/okamotonr/mios/user/target/riscv64gc-unknown-none-elf/debug/deps/libcommon-970cb75fd45c8853.rlib(common-970cb75fd45c8853.as7p77h8vufo2nppwid9f3ol0.rcgu.o):(.debug_line)
             8cd              8cd        0     1                 .Lline_table_start0
             8cd              8cd        0     1                 $d
             965              965    1deaf     1         /home/ryoj/.rustup/toolchains/nightly-x86_64-unknown-linux-gnu/lib/rustlib/riscv64gc-unknown-none-elf/lib/libcore-b7430222903c4bab.rlib(core-b7430222903c4bab.core.448b4ae190475ef3-cgu.0.rcgu.o):(.debug_line)
             965              965        0     1                 .Lline_table_start0
             965              965        0     1                 $d
           1e814            1e814      400     1         /home/ryoj/.rustup/toolchains/nightly-x86_64-unknown-linux-gnu/lib/rustlib/riscv64gc-unknown-none-elf/lib/libcompiler_builtins-12400e53a9c73834.rlib(compiler_builtins-12400e53a9c73834.compiler_builtins.2b04ae1fd906da09-cgu.125.rcgu.o):(.debug_line)
           1e814            1e814        0     1                 .Lline_table_start0
           1e814            1e814        0     1                 $d
           1eb17            1eb17        0     1                 .Lline_table_start1
           1ec14            1ec14      305     1         /home/ryoj/.rustup/toolchains/nightly-x86_64-unknown-linux-gnu/lib/rustlib/riscv64gc-unknown-none-elf/lib/libcompiler_builtins-12400e53a9c73834.rlib(compiler_builtins-12400e53a9c73834.compiler_builtins.2b04ae1fd906da09-cgu.176.rcgu.o):(.debug_line)
           1ec14            1ec14        0     1                 .Lline_table_start0
           1ec14            1ec14        0     1                 $d
           1ee2c            1ee2c        0     1                 .Lline_table_start1
           1ef19            1ef19      287     1         /home/ryoj/.rustup/toolchains/nightly-x86_64-unknown-linux-gnu/lib/rustlib/riscv64gc-unknown-none-elf/lib/libcompiler_builtins-12400e53a9c73834.rlib(compiler_builtins-12400e53a9c73834.compiler_builtins.2b04ae1fd906da09-cgu.188.rcgu.o):(.debug_line)
           1ef19            1ef19        0     1                 .Lline_table_start0
           1ef19            1ef19        0     1                 $d
           1f0fe            1f0fe        0     1                 .Lline_table_start1
           1f1a0            1f1a0      100     1         /home/ryoj/.rustup/toolchains/nightly-x86_64-unknown-linux-gnu/lib/rustlib/riscv64gc-unknown-none-elf/lib/libcompiler_builtins-12400e53a9c73834.rlib(compiler_builtins-12400e53a9c73834.compiler_builtins.2b04ae1fd906da09-cgu.213.rcgu.o):(.debug_line)
           1f1a0            1f1a0        0     1                 .Lline_table_start0
           1f1a0            1f1a0        0     1                 $d
           1f25d            1f25d        0     1                 .Lline_table_start1
           1f2a0            1f2a0       9e     1         /home/ryoj/.rustup/toolchains/nightly-x86_64-unknown-linux-gnu/lib/rustlib/riscv64gc-unknown-none-elf/lib/libcompiler_builtins-12400e53a9c73834.rlib(compiler_builtins-12400e53a9c73834.compiler_builtins.2b04ae1fd906da09-cgu.263.rcgu.o):(.debug_line)
           1f2a0            1f2a0        0     1                 .Lline_table_start0
           1f2a0            1f2a0        0     1                 $d
           1f30f            1f30f        0     1                 .Lline_table_start1
           1f33e            1f33e      8c1     1         /home/ryoj/.rustup/toolchains/nightly-x86_64-unknown-linux-gnu/lib/rustlib/riscv64gc-unknown-none-elf/lib/libcompiler_builtins-12400e53a9c73834.rlib(compiler_builtins-12400e53a9c73834.compiler_builtins.2b04ae1fd906da09-cgu.010.rcgu.o):(.debug_line)
           1f33e            1f33e        0     1                 .Lline_table_start0
           1f33e            1f33e        0     1                 $d
               0                0    19aa0     1 .debug_ranges
               0                0      120     1         /home/ryoj/github.com/okamotonr/mios/user/target/riscv64gc-unknown-none-elf/debug/deps/user-cec12b36b65e6162.8bj71k2hsx7sgv9ieqceddsht.rcgu.o:(.debug_ranges)
               0                0        0     1                 .L0 
               0                0        0     1                 $d
              40               40        0     1                 .L0 
              80               80        0     1                 .L0 
              c0               c0        0     1                 .L0 
              f0               f0        0     1                 .L0 
             120              120       40     1         /home/ryoj/github.com/okamotonr/mios/user/target/riscv64gc-unknown-none-elf/debug/deps/user-cec12b36b65e6162.blz3vm5tnk2n5nwg01qssbtuy.rcgu.o:(.debug_ranges)
             120              120        0     1                 .L0 
             120              120        0     1                 $d
             160              160       30     1         /home/ryoj/github.com/okamotonr/mios/user/target/riscv64gc-unknown-none-elf/debug/deps/user-cec12b36b65e6162.cahjwisf1i9xikuj3omtw9z2o.rcgu.o:(.debug_ranges)
             160              160        0     1                 .L0 
             160              160        0     1                 $d
             190              190       30     1         /home/ryoj/github.com/okamotonr/mios/user/target/riscv64gc-unknown-none-elf/debug/deps/libcommon-970cb75fd45c8853.rlib(common-970cb75fd45c8853.as7p77h8vufo2nppwid9f3ol0.rcgu.o):(.debug_ranges)
             190              190        0     1                 .L0 
             190              190        0     1                 $d
             1c0              1c0    19530     1         /home/ryoj/.rustup/toolchains/nightly-x86_64-unknown-linux-gnu/lib/rustlib/riscv64gc-unknown-none-elf/lib/libcore-b7430222903c4bab.rlib(core-b7430222903c4bab.core.448b4ae190475ef3-cgu.0.rcgu.o):(.debug_ranges)
             1c0              1c0        0     1                 .L0 
             1c0              1c0        0     1                 $d
             1f0              1f0        0     1                 .L0 
             220              220        0     1                 .L0 
             250              250        0     1                 .L0 
             280              280        0     1                 .L0 
             2c0              2c0        0     1                 .L0 
             2f0              2f0        0     1                 .L0 
             320              320        0     1                 .L0 
             350              350        0     1                 .L0 
             380              380        0     1                 .L0 
             3b0              3b0        0     1                 .L0 
             3e0              3e0        0     1                 .L0 
             410              410        0     1                 .L0 
             440              440        0     1                 .L0 
             470              470        0     1                 .L0 
             4a0              4a0        0     1                 .L0 
             4d0              4d0        0     1                 .L0 
             500              500        0     1                 .L0 
             530              530        0     1                 .L0 
             560              560        0     1                 .L0 
             590              590        0     1                 .L0 
             5c0              5c0        0     1                 .L0 
             5f0              5f0        0     1                 .L0 
             640              640        0     1                 .L0 
             670              670        0     1                 .L0 
             6a0              6a0        0     1                 .L0 
             6d0              6d0        0     1                 .L0 
             710              710        0     1                 .L0 
             750              750        0     1                 .L0 
             780              780        0     1                 .L0 
             7b0              7b0        0     1                 .L0 
             7e0              7e0        0     1                 .L0 
             820              820        0     1                 .L0 
             860              860        0     1                 .L0 
             890              890        0     1                 .L0 
             8d0              8d0        0     1                 .L0 
             900              900        0     1                 .L0 
             940              940        0     1                 .L0 
             970              970        0     1                 .L0 
             9a0              9a0        0     1                 .L0 
             9d0              9d0        0     1                 .L0 
             a00              a00        0     1                 .L0 
             a40              a40        0     1                 .L0 
             a70              a70        0     1                 .L0 
             ab0              ab0        0     1                 .L0 
             ae0              ae0        0     1                 .L0 
             b10              b10        0     1                 .L0 
             b40              b40        0     1                 .L0 
             b70              b70        0     1                 .L0 
             bb0              bb0        0     1                 .L0 
             be0              be0        0     1                 .L0 
             c20              c20        0     1                 .L0 
             c50              c50        0     1                 .L0 
             c90              c90        0     1                 .L0 
             ce0              ce0        0     1                 .L0 
             d10              d10        0     1                 .L0 
             d70              d70        0     1                 .L0 
             da0              da0        0     1                 .L0 
             dd0              dd0        0     1                 .L0 
             e00              e00        0     1                 .L0 
             e30              e30        0     1                 .L0 
             e60              e60        0     1                 .L0 
             e90              e90        0     1                 .L0 
             ee0              ee0        0     1                 .L0 
             f10              f10        0     1                 .L0 
             f40              f40        0     1                 .L0 
             f70              f70        0     1                 .L0 
             fb0              fb0        0     1                 .L0 
             ff0              ff0        0     1                 .L0 
            1020             1020        0     1                 .L0 
            1070             1070        0     1                 .L0 
            10a0             10a0        0     1                 .L0 
            10d0             10d0        0     1                 .L0 
            1100             1100        0     1                 .L0 
            1130             1130        0     1                 .L0 
            1170             1170        0     1                 .L0 
            11a0             11a0        0     1                 .L0 
            11d0             11d0        0     1                 .L0 
            1210             1210        0     1                 .L0 
            1240             1240        0     1                 .L0 
            12a0             12a0        0     1                 .L0 
            12f0             12f0        0     1                 .L0 
            1340             1340        0     1                 .L0 
            1390             1390        0     1                 .L0 
            13c0             13c0        0     1                 .L0 
            13f0             13f0        0     1                 .L0 
            1420             1420        0     1                 .L0 
            1450             1450        0     1                 .L0 
            1480             1480        0     1                 .L0 
            14b0             14b0        0     1                 .L0 
            14e0             14e0        0     1                 .L0 
            1510             1510        0     1                 .L0 
            1540             1540        0     1                 .L0 
            1570             1570        0     1                 .L0 
            15a0             15a0        0     1                 .L0 
            15d0             15d0        0     1                 .L0 
            1600             1600        0     1                 .L0 
            1650             1650        0     1                 .L0 
            16a0             16a0        0     1                 .L0 
            16f0             16f0        0     1                 .L0 
            1720             1720        0     1                 .L0 
            1750             1750        0     1                 .L0 
            1780             1780        0     1                 .L0 
            17b0             17b0        0     1                 .L0 
            17e0             17e0        0     1                 .L0 
            1810             1810        0     1                 .L0 
            1840             1840        0     1                 .L0 
            1870             1870        0     1                 .L0 
            18a0             18a0        0     1                 .L0 
            18d0             18d0        0     1                 .L0 
            1900             1900        0     1                 .L0 
            1930             1930        0     1                 .L0 
            1960             1960        0     1                 .L0 
            19b0             19b0        0     1                 .L0 
            1a00             1a00        0     1                 .L0 
            1a50             1a50        0     1                 .L0 
            1a80             1a80        0     1                 .L0 
            1ab0             1ab0        0     1                 .L0 
            1ae0             1ae0        0     1                 .L0 
            1b10             1b10        0     1                 .L0 
            1b40             1b40        0     1                 .L0 
            1b70             1b70        0     1                 .L0 
            1ba0             1ba0        0     1                 .L0 
            1bd0             1bd0        0     1                 .L0 
            1c00             1c00        0     1                 .L0 
            1c30             1c30        0     1                 .L0 
            1c60             1c60        0     1                 .L0 
            1c90             1c90        0     1                 .L0 
            1cc0             1cc0        0     1                 .L0 
            1d10             1d10        0     1                 .L0 
            1d60             1d60        0     1                 .L0 
            1db0             1db0        0     1                 .L0 
            1de0             1de0        0     1                 .L0 
            1e10             1e10        0     1                 .L0 
            1e40             1e40        0     1                 .L0 
            1e70             1e70        0     1                 .L0 
            1ea0             1ea0        0     1                 .L0 
            1ed0             1ed0        0     1                 .L0 
            1f00             1f00        0     1                 .L0 
            1f30             1f30        0     1                 .L0 
            1f60             1f60        0     1                 .L0 
            1f90             1f90        0     1                 .L0 
            1fc0             1fc0        0     1                 .L0 
            1ff0             1ff0        0     1                 .L0 
            2020             2020        0     1                 .L0 
            2070             2070        0     1                 .L0 
            20a0             20a0        0     1                 .L0 
            20d0             20d0        0     1                 .L0 
            2100             2100        0     1                 .L0 
            2130             2130        0     1                 .L0 
            2160             2160        0     1                 .L0 
            21b0             21b0        0     1                 .L0 
            21e0             21e0        0     1                 .L0 
            2210             2210        0     1                 .L0 
            2240             2240        0     1                 .L0 
            2270             2270        0     1                 .L0 
            22a0             22a0        0     1                 .L0 
            22d0             22d0        0     1                 .L0 
            2300             2300        0     1                 .L0 
            2330             2330        0     1                 .L0 
            2360             2360        0     1                 .L0 
            2390             2390        0     1                 .L0 
            23c0             23c0        0     1                 .L0 
            2400             2400        0     1                 .L0 
            2440             2440        0     1                 .L0 
            2470             2470        0     1                 .L0 
            24b0             24b0        0     1                 .L0 
            2500             2500        0     1                 .L0 
            2530             2530        0     1                 .L0 
            2560             2560        0     1                 .L0 
            25a0             25a0        0     1                 .L0 
            25d0             25d0        0     1                 .L0 
            2600             2600        0     1                 .L0 
            2640             2640        0     1                 .L0 
            2680             2680        0     1                 .L0 
            26b0             26b0        0     1                 .L0 
            26e0             26e0        0     1                 .L0 
            2710             2710        0     1                 .L0 
            2740             2740        0     1                 .L0 
            2770             2770        0     1                 .L0 
            27a0             27a0        0     1                 .L0 
            27d0             27d0        0     1                 .L0 
            2810             2810        0     1                 .L0 
            2850             2850        0     1                 .L0 
            2880             2880        0     1                 .L0 
            28b0             28b0        0     1                 .L0 
            28e0             28e0        0     1                 .L0 
            2910             2910        0     1                 .L0 
            2940             2940        0     1                 .L0 
            2970             2970        0     1                 .L0 
            29b0             29b0        0     1                 .L0 
            29f0             29f0        0     1                 .L0 
            2a30             2a30        0     1                 .L0 
            2a70             2a70        0     1                 .L0 
            2ab0             2ab0        0     1                 .L0 
            2af0             2af0        0     1                 .L0 
            2b30             2b30        0     1                 .L0 
            2b60             2b60        0     1                 .L0 
            2b90             2b90        0     1                 .L0 
            2bc0             2bc0        0     1                 .L0 
            2bf0             2bf0        0     1                 .L0 
            2c20             2c20        0     1                 .L0 
            2c50             2c50        0     1                 .L0 
            2c80             2c80        0     1                 .L0 
            2cb0             2cb0        0     1                 .L0 
            2ce0             2ce0        0     1                 .L0 
            2d30             2d30        0     1                 .L0 
            2d60             2d60        0     1                 .L0 
            2d90             2d90        0     1                 .L0 
            2dc0             2dc0        0     1                 .L0 
            2df0             2df0        0     1                 .L0 
            2e20             2e20        0     1                 .L0 
            2e50             2e50        0     1                 .L0 
            2e80             2e80        0     1                 .L0 
            2eb0             2eb0        0     1                 .L0 
            2ee0             2ee0        0     1                 .L0 
            2f20             2f20        0     1                 .L0 
            2f60             2f60        0     1                 .L0 
            2fa0             2fa0        0     1                 .L0 
            2fd0             2fd0        0     1                 .L0 
            3000             3000        0     1                 .L0 
            3030             3030        0     1                 .L0 
            3060             3060        0     1                 .L0 
            30a0             30a0        0     1                 .L0 
            30d0             30d0        0     1                 .L0 
            3110             3110        0     1                 .L0 
            3140             3140        0     1                 .L0 
            3180             3180        0     1                 .L0 
            31c0             31c0        0     1                 .L0 
            3200             3200        0     1                 .L0 
            3230             3230        0     1                 .L0 
            3260             3260        0     1                 .L0 
            3290             3290        0     1                 .L0 
            32c0             32c0        0     1                 .L0 
            3310             3310        0     1                 .L0 
            3360             3360        0     1                 .L0 
            33b0             33b0        0     1                 .L0 
            33e0             33e0        0     1                 .L0 
            3410             3410        0     1                 .L0 
            3440             3440        0     1                 .L0 
            3470             3470        0     1                 .L0 
            34a0             34a0        0     1                 .L0 
            34d0             34d0        0     1                 .L0 
            3500             3500        0     1                 .L0 
            3530             3530        0     1                 .L0 
            3560             3560        0     1                 .L0 
            3590             3590        0     1                 .L0 
            35c0             35c0        0     1                 .L0 
            35f0             35f0        0     1                 .L0 
            3620             3620        0     1                 .L0 
            3670             3670        0     1                 .L0 
            36c0             36c0        0     1                 .L0 
            3710             3710        0     1                 .L0 
            3740             3740        0     1                 .L0 
            3770             3770        0     1                 .L0 
            37a0             37a0        0     1                 .L0 
            37d0             37d0        0     1                 .L0 
            3800             3800        0     1                 .L0 
            3830             3830        0     1                 .L0 
            3860             3860        0     1                 .L0 
            3890             3890        0     1                 .L0 
            38c0             38c0        0     1                 .L0 
            38f0             38f0        0     1                 .L0 
            3920             3920        0     1                 .L0 
            3950             3950        0     1                 .L0 
            3980             3980        0     1                 .L0 
            39d0             39d0        0     1                 .L0 
            3a20             3a20        0     1                 .L0 
            3a70             3a70        0     1                 .L0 
            3aa0             3aa0        0     1                 .L0 
            3ad0             3ad0        0     1                 .L0 
            3b00             3b00        0     1                 .L0 
            3b30             3b30        0     1                 .L0 
            3b60             3b60        0     1                 .L0 
            3b90             3b90        0     1                 .L0 
            3bc0             3bc0        0     1                 .L0 
            3bf0             3bf0        0     1                 .L0 
            3c20             3c20        0     1                 .L0 
            3c50             3c50        0     1                 .L0 
            3c80             3c80        0     1                 .L0 
            3cb0             3cb0        0     1                 .L0 
            3ce0             3ce0        0     1                 .L0 
            3d20             3d20        0     1                 .L0 
            3d50             3d50        0     1                 .L0 
            3d80             3d80        0     1                 .L0 
            3db0             3db0        0     1                 .L0 
            3de0             3de0        0     1                 .L0 
            3e20             3e20        0     1                 .L0 
            3e50             3e50        0     1                 .L0 
            3e90             3e90        0     1                 .L0 
            3ed0             3ed0        0     1                 .L0 
            3f00             3f00        0     1                 .L0 
            3f30             3f30        0     1                 .L0 
            3f60             3f60        0     1                 .L0 
            3fa0             3fa0        0     1                 .L0 
            3fd0             3fd0        0     1                 .L0 
            4010             4010        0     1                 .L0 
            4040             4040        0     1                 .L0 
            4070             4070        0     1                 .L0 
            40a0             40a0        0     1                 .L0 
            40d0             40d0        0     1                 .L0 
            4100             4100        0     1                 .L0 
            4130             4130        0     1                 .L0 
            4160             4160        0     1                 .L0 
            4190             4190        0     1                 .L0 
            41c0             41c0        0     1                 .L0 
            41f0             41f0        0     1                 .L0 
            4220             4220        0     1                 .L0 
            4260             4260        0     1                 .L0 
            4290             4290        0     1                 .L0 
            42c0             42c0        0     1                 .L0 
            42f0             42f0        0     1                 .L0 
            4320             4320        0     1                 .L0 
            4360             4360        0     1                 .L0 
            4390             4390        0     1                 .L0 
            43d0             43d0        0     1                 .L0 
            4410             4410        0     1                 .L0 
            4440             4440        0     1                 .L0 
            4470             4470        0     1                 .L0 
            44a0             44a0        0     1                 .L0 
            44d0             44d0        0     1                 .L0 
            4500             4500        0     1                 .L0 
            4530             4530        0     1                 .L0 
            4560             4560        0     1                 .L0 
            4590             4590        0     1                 .L0 
            45c0             45c0        0     1                 .L0 
            4610             4610        0     1                 .L0 
            4640             4640        0     1                 .L0 
            4670             4670        0     1                 .L0 
            46a0             46a0        0     1                 .L0 
            46d0             46d0        0     1                 .L0 
            4700             4700        0     1                 .L0 
            4730             4730        0     1                 .L0 
            4760             4760        0     1                 .L0 
            4790             4790        0     1                 .L0 
            47c0             47c0        0     1                 .L0 
            47f0             47f0        0     1                 .L0 
            4820             4820        0     1                 .L0 
            4850             4850        0     1                 .L0 
            4880             4880        0     1                 .L0 
            48c0             48c0        0     1                 .L0 
            48f0             48f0        0     1                 .L0 
            4920             4920        0     1                 .L0 
            4950             4950        0     1                 .L0 
            4980             4980        0     1                 .L0 
            49b0             49b0        0     1                 .L0 
            49e0             49e0        0     1                 .L0 
            4a10             4a10        0     1                 .L0 
            4a40             4a40        0     1                 .L0 
            4a70             4a70        0     1                 .L0 
            4aa0             4aa0        0     1                 .L0 
            4ad0             4ad0        0     1                 .L0 
            4b00             4b00        0     1                 .L0 
            4b30             4b30        0     1                 .L0 
            4b70             4b70        0     1                 .L0 
            4bb0             4bb0        0     1                 .L0 
            4be0             4be0        0     1                 .L0 
            4c10             4c10        0     1                 .L0 
            4c40             4c40        0     1                 .L0 
            4c70             4c70        0     1                 .L0 
            4ca0             4ca0        0     1                 .L0 
            4cd0             4cd0        0     1                 .L0 
            4d00             4d00        0     1                 .L0 
            4d30             4d30        0     1                 .L0 
            4d70             4d70        0     1                 .L0 
            4da0             4da0        0     1                 .L0 
            4dd0             4dd0        0     1                 .L0 
            4e00             4e00        0     1                 .L0 
            4e40             4e40        0     1                 .L0 
            4e70             4e70        0     1                 .L0 
            4ea0             4ea0        0     1                 .L0 
            4ed0             4ed0        0     1                 .L0 
            4f00             4f00        0     1                 .L0 
            4f30             4f30        0     1                 .L0 
            4f60             4f60        0     1                 .L0 
            4f90             4f90        0     1                 .L0 
            4fc0             4fc0        0     1                 .L0 
            4ff0             4ff0        0     1                 .L0 
            5020             5020        0     1                 .L0 
            5050             5050        0     1                 .L0 
            5080             5080        0     1                 .L0 
            50b0             50b0        0     1                 .L0 
            50e0             50e0        0     1                 .L0 
            5110             5110        0     1                 .L0 
            5140             5140        0     1                 .L0 
            5170             5170        0     1                 .L0 
            51a0             51a0        0     1                 .L0 
            51d0             51d0        0     1                 .L0 
            5200             5200        0     1                 .L0 
            5230             5230        0     1                 .L0 
            5260             5260        0     1                 .L0 
            5290             5290        0     1                 .L0 
            52c0             52c0        0     1                 .L0 
            52f0             52f0        0     1                 .L0 
            5320             5320        0     1                 .L0 
            5350             5350        0     1                 .L0 
            5380             5380        0     1                 .L0 
            53b0             53b0        0     1                 .L0 
            53e0             53e0        0     1                 .L0 
            5410             5410        0     1                 .L0 
            5440             5440        0     1                 .L0 
            5470             5470        0     1                 .L0 
            54a0             54a0        0     1                 .L0 
            54d0             54d0        0     1                 .L0 
            5500             5500        0     1                 .L0 
            5530             5530        0     1                 .L0 
            5560             5560        0     1                 .L0 
            55a0             55a0        0     1                 .L0 
            55d0             55d0        0     1                 .L0 
            5600             5600        0     1                 .L0 
            5630             5630        0     1                 .L0 
            56b0             56b0        0     1                 .L0 
            5730             5730        0     1                 .L0 
            57b0             57b0        0     1                 .L0 
            5830             5830        0     1                 .L0 
            58b0             58b0        0     1                 .L0 
            58f0             58f0        0     1                 .L0 
            5950             5950        0     1                 .L0 
            59a0             59a0        0     1                 .L0 
            5a00             5a00        0     1                 .L0 
            5a50             5a50        0     1                 .L0 
            5aa0             5aa0        0     1                 .L0 
            5af0             5af0        0     1                 .L0 
            5b30             5b30        0     1                 .L0 
            5b60             5b60        0     1                 .L0 
            5b90             5b90        0     1                 .L0 
            5bc0             5bc0        0     1                 .L0 
            5c30             5c30        0     1                 .L0 
            5c90             5c90        0     1                 .L0 
            5cf0             5cf0        0     1                 .L0 
            5d50             5d50        0     1                 .L0 
            5db0             5db0        0     1                 .L0 
            5df0             5df0        0     1                 .L0 
            5e30             5e30        0     1                 .L0 
            5e60             5e60        0     1                 .L0 
            5e90             5e90        0     1                 .L0 
            5ec0             5ec0        0     1                 .L0 
            5f10             5f10        0     1                 .L0 
            5f60             5f60        0     1                 .L0 
            5fb0             5fb0        0     1                 .L0 
            5fe0             5fe0        0     1                 .L0 
            6050             6050        0     1                 .L0 
            6080             6080        0     1                 .L0 
            60b0             60b0        0     1                 .L0 
            6100             6100        0     1                 .L0 
            6130             6130        0     1                 .L0 
            6160             6160        0     1                 .L0 
            61b0             61b0        0     1                 .L0 
            6200             6200        0     1                 .L0 
            6250             6250        0     1                 .L0 
            62a0             62a0        0     1                 .L0 
            62f0             62f0        0     1                 .L0 
            6320             6320        0     1                 .L0 
            6370             6370        0     1                 .L0 
            63c0             63c0        0     1                 .L0 
            64a0             64a0        0     1                 .L0 
            6620             6620        0     1                 .L0 
            6760             6760        0     1                 .L0 
            6870             6870        0     1                 .L0 
            6950             6950        0     1                 .L0 
            6a30             6a30        0     1                 .L0 
            6b10             6b10        0     1                 .L0 
            6bb0             6bb0        0     1                 .L0 
            6d30             6d30        0     1                 .L0 
            6eb0             6eb0        0     1                 .L0 
            6f00             6f00        0     1                 .L0 
            6f50             6f50        0     1                 .L0 
            6fa0             6fa0        0     1                 .L0 
            6fe0             6fe0        0     1                 .L0 
            7020             7020        0     1                 .L0 
            7060             7060        0     1                 .L0 
            70a0             70a0        0     1                 .L0 
            70d0             70d0        0     1                 .L0 
            7110             7110        0     1                 .L0 
            7140             7140        0     1                 .L0 
            7170             7170        0     1                 .L0 
            71a0             71a0        0     1                 .L0 
            71d0             71d0        0     1                 .L0 
            7200             7200        0     1                 .L0 
            7230             7230        0     1                 .L0 
            7260             7260        0     1                 .L0 
            7290             7290        0     1                 .L0 
            72c0             72c0        0     1                 .L0 
            7300             7300        0     1                 .L0 
            7340             7340        0     1                 .L0 
            7380             7380        0     1                 .L0 
            73b0             73b0        0     1                 .L0 
            73e0             73e0        0     1                 .L0 
            7410             7410        0     1                 .L0 
            7440             7440        0     1                 .L0 
            7490             7490        0     1                 .L0 
            74f0             74f0        0     1                 .L0 
            7540             7540        0     1                 .L0 
            7590             7590        0     1                 .L0 
            75c0             75c0        0     1                 .L0 
            75f0             75f0        0     1                 .L0 
            7620             7620        0     1                 .L0 
            7650             7650        0     1                 .L0 
            7680             7680        0     1                 .L0 
            76b0             76b0        0     1                 .L0 
            76f0             76f0        0     1                 .L0 
            7730             7730        0     1                 .L0 
            7760             7760        0     1                 .L0 
            7790             7790        0     1                 .L0 
            77c0             77c0        0     1                 .L0 
            77f0             77f0        0     1                 .L0 
            7820             7820        0     1                 .L0 
            7860             7860        0     1                 .L0 
            7890             7890        0     1                 .L0 
            78c0             78c0        0     1                 .L0 
            78f0             78f0        0     1                 .L0 
            7920             7920        0     1                 .L0 
            7970             7970        0     1                 .L0 
            79c0             79c0        0     1                 .L0 
            7a10             7a10        0     1                 .L0 
            7a50             7a50        0     1                 .L0 
            7a90             7a90        0     1                 .L0 
            7ac0             7ac0        0     1                 .L0 
            7af0             7af0        0     1                 .L0 
            7b20             7b20        0     1                 .L0 
            7b50             7b50        0     1                 .L0 
            7b80             7b80        0     1                 .L0 
            7bb0             7bb0        0     1                 .L0 
            7be0             7be0        0     1                 .L0 
            7c10             7c10        0     1                 .L0 
            7c40             7c40        0     1                 .L0 
            7c70             7c70        0     1                 .L0 
            7ca0             7ca0        0     1                 .L0 
            7ce0             7ce0        0     1                 .L0 
            7d20             7d20        0     1                 .L0 
            7d50             7d50        0     1                 .L0 
            7d80             7d80        0     1                 .L0 
            7db0             7db0        0     1                 .L0 
            7de0             7de0        0     1                 .L0 
            7e10             7e10        0     1                 .L0 
            7e60             7e60        0     1                 .L0 
            7eb0             7eb0        0     1                 .L0 
            7ee0             7ee0        0     1                 .L0 
            7f10             7f10        0     1                 .L0 
            7f40             7f40        0     1                 .L0 
            7f80             7f80        0     1                 .L0 
            7fd0             7fd0        0     1                 .L0 
            8020             8020        0     1                 .L0 
            8050             8050        0     1                 .L0 
            8080             8080        0     1                 .L0 
            80b0             80b0        0     1                 .L0 
            80f0             80f0        0     1                 .L0 
            8130             8130        0     1                 .L0 
            8170             8170        0     1                 .L0 
            81a0             81a0        0     1                 .L0 
            81d0             81d0        0     1                 .L0 
            8200             8200        0     1                 .L0 
            8230             8230        0     1                 .L0 
            8260             8260        0     1                 .L0 
            8290             8290        0     1                 .L0 
            82c0             82c0        0     1                 .L0 
            82f0             82f0        0     1                 .L0 
            8320             8320        0     1                 .L0 
            8350             8350        0     1                 .L0 
            8380             8380        0     1                 .L0 
            83b0             83b0        0     1                 .L0 
            83f0             83f0        0     1                 .L0 
            8420             8420        0     1                 .L0 
            8450             8450        0     1                 .L0 
            8490             8490        0     1                 .L0 
            84c0             84c0        0     1                 .L0 
            84f0             84f0        0     1                 .L0 
            8520             8520        0     1                 .L0 
            85a0             85a0        0     1                 .L0 
            8620             8620        0     1                 .L0 
            8660             8660        0     1                 .L0 
            86a0             86a0        0     1                 .L0 
            86d0             86d0        0     1                 .L0 
            8700             8700        0     1                 .L0 
            8730             8730        0     1                 .L0 
            8760             8760        0     1                 .L0 
            8790             8790        0     1                 .L0 
            87c0             87c0        0     1                 .L0 
            87f0             87f0        0     1                 .L0 
            8820             8820        0     1                 .L0 
            8860             8860        0     1                 .L0 
            8890             8890        0     1                 .L0 
            88c0             88c0        0     1                 .L0 
            8900             8900        0     1                 .L0 
            8940             8940        0     1                 .L0 
            8980             8980        0     1                 .L0 
            89c0             89c0        0     1                 .L0 
            8a00             8a00        0     1                 .L0 
            8a40             8a40        0     1                 .L0 
            8a70             8a70        0     1                 .L0 
            8aa0             8aa0        0     1                 .L0 
            8ad0             8ad0        0     1                 .L0 
            8b00             8b00        0     1                 .L0 
            8b30             8b30        0     1                 .L0 
            8b60             8b60        0     1                 .L0 
            8b90             8b90        0     1                 .L0 
            8bc0             8bc0        0     1                 .L0 
            8bf0             8bf0        0     1                 .L0 
            8c20             8c20        0     1                 .L0 
            8c50             8c50        0     1                 .L0 
            8c80             8c80        0     1                 .L0 
            8cb0             8cb0        0     1                 .L0 
            8ce0             8ce0        0     1                 .L0 
            8d10             8d10        0     1                 .L0 
            8d40             8d40        0     1                 .L0 
            8d70             8d70        0     1                 .L0 
            8da0             8da0        0     1                 .L0 
            8dd0             8dd0        0     1                 .L0 
            8e00             8e00        0     1                 .L0 
            8e30             8e30        0     1                 .L0 
            8e60             8e60        0     1                 .L0 
            8e90             8e90        0     1                 .L0 
            8ec0             8ec0        0     1                 .L0 
            8ef0             8ef0        0     1                 .L0 
            8f20             8f20        0     1                 .L0 
            8f50             8f50        0     1                 .L0 
            8f80             8f80        0     1                 .L0 
            8fc0             8fc0        0     1                 .L0 
            9000             9000        0     1                 .L0 
            9030             9030        0     1                 .L0 
            9070             9070        0     1                 .L0 
            90b0             90b0        0     1                 .L0 
            90f0             90f0        0     1                 .L0 
            9120             9120        0     1                 .L0 
            9150             9150        0     1                 .L0 
            9180             9180        0     1                 .L0 
            91b0             91b0        0     1                 .L0 
            91e0             91e0        0     1                 .L0 
            9210             9210        0     1                 .L0 
            9240             9240        0     1                 .L0 
            9270             9270        0     1                 .L0 
            92a0             92a0        0     1                 .L0 
            92d0             92d0        0     1                 .L0 
            9300             9300        0     1                 .L0 
            9330             9330        0     1                 .L0 
            9360             9360        0     1                 .L0 
            9390             9390        0     1                 .L0 
            93c0             93c0        0     1                 .L0 
            93f0             93f0        0     1                 .L0 
            9430             9430        0     1                 .L0 
            9470             9470        0     1                 .L0 
            94a0             94a0        0     1                 .L0 
            94d0             94d0        0     1                 .L0 
            9500             9500        0     1                 .L0 
            9530             9530        0     1                 .L0 
            9560             9560        0     1                 .L0 
            95a0             95a0        0     1                 .L0 
            95e0             95e0        0     1                 .L0 
            9610             9610        0     1                 .L0 
            9640             9640        0     1                 .L0 
            9670             9670        0     1                 .L0 
            96a0             96a0        0     1                 .L0 
            96d0             96d0        0     1                 .L0 
            9700             9700        0     1                 .L0 
            9730             9730        0     1                 .L0 
            9760             9760        0     1                 .L0 
            9790             9790        0     1                 .L0 
            97c0             97c0        0     1                 .L0 
            97f0             97f0        0     1                 .L0 
            9820             9820        0     1                 .L0 
            9850             9850        0     1                 .L0 
            9880             9880        0     1                 .L0 
            98d0             98d0        0     1                 .L0 
            9920             9920        0     1                 .L0 
            9950             9950        0     1                 .L0 
            9980             9980        0     1                 .L0 
            99b0             99b0        0     1                 .L0 
            99f0             99f0        0     1                 .L0 
            9a30             9a30        0     1                 .L0 
            9a60             9a60        0     1                 .L0 
            9a90             9a90        0     1                 .L0 
            9ac0             9ac0        0     1                 .L0 
            9af0             9af0        0     1                 .L0 
            9b30             9b30        0     1                 .L0 
            9b70             9b70        0     1                 .L0 
            9ba0             9ba0        0     1                 .L0 
            9bd0             9bd0        0     1                 .L0 
            9c00             9c00        0     1                 .L0 
            9c30             9c30        0     1                 .L0 
            9c70             9c70        0     1                 .L0 
            9ca0             9ca0        0     1                 .L0 
            9cd0             9cd0        0     1                 .L0 
            9d00             9d00        0     1                 .L0 
            9d30             9d30        0     1                 .L0 
            9d60             9d60        0     1                 .L0 
            9d90             9d90        0     1                 .L0 
            9dd0             9dd0        0     1                 .L0 
            9e00             9e00        0     1                 .L0 
            9e30             9e30        0     1                 .L0 
            9e60             9e60        0     1                 .L0 
            9e90             9e90        0     1                 .L0 
            9ec0             9ec0        0     1                 .L0 
            9f00             9f00        0     1                 .L0 
            9f30             9f30        0     1                 .L0 
            9f60             9f60        0     1                 .L0 
            9f90             9f90        0     1                 .L0 
            9fc0             9fc0        0     1                 .L0 
            9ff0             9ff0        0     1                 .L0 
            a030             a030        0     1                 .L0 
            a060             a060        0     1                 .L0 
            a090             a090        0     1                 .L0 
            a0c0             a0c0        0     1                 .L0 
            a0f0             a0f0        0     1                 .L0 
            a120             a120        0     1                 .L0 
            a150             a150        0     1                 .L0 
            a190             a190        0     1                 .L0 
            a1c0             a1c0        0     1                 .L0 
            a1f0             a1f0        0     1                 .L0 
            a220             a220        0     1                 .L0 
            a250             a250        0     1                 .L0 
            a280             a280        0     1                 .L0 
            a2c0             a2c0        0     1                 .L0 
            a2f0             a2f0        0     1                 .L0 
            a320             a320        0     1                 .L0 
            a350             a350        0     1                 .L0 
            a380             a380        0     1                 .L0 
            a3c0             a3c0        0     1                 .L0 
            a3f0             a3f0        0     1                 .L0 
            a420             a420        0     1                 .L0 
            a450             a450        0     1                 .L0 
            a480             a480        0     1                 .L0 
            a4b0             a4b0        0     1                 .L0 
            a4f0             a4f0        0     1                 .L0 
            a520             a520        0     1                 .L0 
            a550             a550        0     1                 .L0 
            a590             a590        0     1                 .L0 
            a5c0             a5c0        0     1                 .L0 
            a5f0             a5f0        0     1                 .L0 
            a620             a620        0     1                 .L0 
            a650             a650        0     1                 .L0 
            a680             a680        0     1                 .L0 
            a6b0             a6b0        0     1                 .L0 
            a6e0             a6e0        0     1                 .L0 
            a710             a710        0     1                 .L0 
            a740             a740        0     1                 .L0 
            a770             a770        0     1                 .L0 
            a7a0             a7a0        0     1                 .L0 
            a7e0             a7e0        0     1                 .L0 
            a810             a810        0     1                 .L0 
            a840             a840        0     1                 .L0 
            a870             a870        0     1                 .L0 
            a8b0             a8b0        0     1                 .L0 
            a8e0             a8e0        0     1                 .L0 
            a910             a910        0     1                 .L0 
            a950             a950        0     1                 .L0 
            a980             a980        0     1                 .L0 
            a9b0             a9b0        0     1                 .L0 
            a9f0             a9f0        0     1                 .L0 
            aa20             aa20        0     1                 .L0 
            aa50             aa50        0     1                 .L0 
            aa90             aa90        0     1                 .L0 
            aac0             aac0        0     1                 .L0 
            aaf0             aaf0        0     1                 .L0 
            ab20             ab20        0     1                 .L0 
            ab50             ab50        0     1                 .L0 
            ab80             ab80        0     1                 .L0 
            abb0             abb0        0     1                 .L0 
            abe0             abe0        0     1                 .L0 
            ac20             ac20        0     1                 .L0 
            ac50             ac50        0     1                 .L0 
            ac80             ac80        0     1                 .L0 
            acb0             acb0        0     1                 .L0 
            ace0             ace0        0     1                 .L0 
            ad20             ad20        0     1                 .L0 
            ad50             ad50        0     1                 .L0 
            ad80             ad80        0     1                 .L0 
            adb0             adb0        0     1                 .L0 
            adf0             adf0        0     1                 .L0 
            ae20             ae20        0     1                 .L0 
            ae60             ae60        0     1                 .L0 
            aea0             aea0        0     1                 .L0 
            aee0             aee0        0     1                 .L0 
            af10             af10        0     1                 .L0 
            af40             af40        0     1                 .L0 
            af70             af70        0     1                 .L0 
            afa0             afa0        0     1                 .L0 
            afe0             afe0        0     1                 .L0 
            b020             b020        0     1                 .L0 
            b060             b060        0     1                 .L0 
            b090             b090        0     1                 .L0 
            b0c0             b0c0        0     1                 .L0 
            b0f0             b0f0        0     1                 .L0 
            b120             b120        0     1                 .L0 
            b150             b150        0     1                 .L0 
            b180             b180        0     1                 .L0 
            b1b0             b1b0        0     1                 .L0 
            b1e0             b1e0        0     1                 .L0 
            b220             b220        0     1                 .L0 
            b250             b250        0     1                 .L0 
            b280             b280        0     1                 .L0 
            b2b0             b2b0        0     1                 .L0 
            b2f0             b2f0        0     1                 .L0 
            b320             b320        0     1                 .L0 
            b350             b350        0     1                 .L0 
            b380             b380        0     1                 .L0 
            b3b0             b3b0        0     1                 .L0 
            b3e0             b3e0        0     1                 .L0 
            b410             b410        0     1                 .L0 
            b440             b440        0     1                 .L0 
            b470             b470        0     1                 .L0 
            b4a0             b4a0        0     1                 .L0 
            b4d0             b4d0        0     1                 .L0 
            b500             b500        0     1                 .L0 
            b530             b530        0     1                 .L0 
            b560             b560        0     1                 .L0 
            b590             b590        0     1                 .L0 
            b5c0             b5c0        0     1                 .L0 
            b600             b600        0     1                 .L0 
            b640             b640        0     1                 .L0 
            b670             b670        0     1                 .L0 
            b6a0             b6a0        0     1                 .L0 
            b6d0             b6d0        0     1                 .L0 
            b710             b710        0     1                 .L0 
            b750             b750        0     1                 .L0 
            b790             b790        0     1                 .L0 
            b7c0             b7c0        0     1                 .L0 
            b7f0             b7f0        0     1                 .L0 
            b820             b820        0     1                 .L0 
            b850             b850        0     1                 .L0 
            b880             b880        0     1                 .L0 
            b8b0             b8b0        0     1                 .L0 
            b8e0             b8e0        0     1                 .L0 
            b910             b910        0     1                 .L0 
            b940             b940        0     1                 .L0 
            b970             b970        0     1                 .L0 
            b9b0             b9b0        0     1                 .L0 
            b9e0             b9e0        0     1                 .L0 
            ba10             ba10        0     1                 .L0 
            ba40             ba40        0     1                 .L0 
            ba70             ba70        0     1                 .L0 
            baa0             baa0        0     1                 .L0 
            bad0             bad0        0     1                 .L0 
            bb00             bb00        0     1                 .L0 
            bb30             bb30        0     1                 .L0 
            bb60             bb60        0     1                 .L0 
            bb90             bb90        0     1                 .L0 
            bbc0             bbc0        0     1                 .L0 
            bc00             bc00        0     1                 .L0 
            bc40             bc40        0     1                 .L0 
            bc80             bc80        0     1                 .L0 
            bcb0             bcb0        0     1                 .L0 
            bcf0             bcf0        0     1                 .L0 
            bd30             bd30        0     1                 .L0 
            bd70             bd70        0     1                 .L0 
            bdb0             bdb0        0     1                 .L0 
            bdf0             bdf0        0     1                 .L0 
            be20             be20        0     1                 .L0 
            be60             be60        0     1                 .L0 
            bea0             bea0        0     1                 .L0 
            bee0             bee0        0     1                 .L0 
            bf10             bf10        0     1                 .L0 
            bf60             bf60        0     1                 .L0 
            bfb0             bfb0        0     1                 .L0 
            c000             c000        0     1                 .L0 
            c050             c050        0     1                 .L0 
            c0a0             c0a0        0     1                 .L0 
            c0f0             c0f0        0     1                 .L0 
            c140             c140        0     1                 .L0 
            c190             c190        0     1                 .L0 
            c1d0             c1d0        0     1                 .L0 
            c200             c200        0     1                 .L0 
            c230             c230        0     1                 .L0 
            c260             c260        0     1                 .L0 
            c290             c290        0     1                 .L0 
            c2c0             c2c0        0     1                 .L0 
            c2f0             c2f0        0     1                 .L0 
            c320             c320        0     1                 .L0 
            c350             c350        0     1                 .L0 
            c380             c380        0     1                 .L0 
            c3b0             c3b0        0     1                 .L0 
            c3e0             c3e0        0     1                 .L0 
            c410             c410        0     1                 .L0 
            c440             c440        0     1                 .L0 
            c470             c470        0     1                 .L0 
            c4a0             c4a0        0     1                 .L0 
            c4d0             c4d0        0     1                 .L0 
            c500             c500        0     1                 .L0 
            c530             c530        0     1                 .L0 
            c560             c560        0     1                 .L0 
            c590             c590        0     1                 .L0 
            c5c0             c5c0        0     1                 .L0 
            c5f0             c5f0        0     1                 .L0 
            c620             c620        0     1                 .L0 
            c650             c650        0     1                 .L0 
            c680             c680        0     1                 .L0 
            c6b0             c6b0        0     1                 .L0 
            c6e0             c6e0        0     1                 .L0 
            c710             c710        0     1                 .L0 
            c740             c740        0     1                 .L0 
            c7b0             c7b0        0     1                 .L0 
            c7f0             c7f0        0     1                 .L0 
            c820             c820        0     1                 .L0 
            c850             c850        0     1                 .L0 
            c880             c880        0     1                 .L0 
            c8b0             c8b0        0     1                 .L0 
            c8f0             c8f0        0     1                 .L0 
            c930             c930        0     1                 .L0 
            c960             c960        0     1                 .L0 
            c990             c990        0     1                 .L0 
            c9c0             c9c0        0     1                 .L0 
            c9f0             c9f0        0     1                 .L0 
            ca20             ca20        0     1                 .L0 
            ca60             ca60        0     1                 .L0 
            caa0             caa0        0     1                 .L0 
            cad0             cad0        0     1                 .L0 
            cb00             cb00        0     1                 .L0 
            cb30             cb30        0     1                 .L0 
            cb60             cb60        0     1                 .L0 
            cb90             cb90        0     1                 .L0 
            cbc0             cbc0        0     1                 .L0 
            cbf0             cbf0        0     1                 .L0 
            cc20             cc20        0     1                 .L0 
            cc50             cc50        0     1                 .L0 
            cc80             cc80        0     1                 .L0 
            ccb0             ccb0        0     1                 .L0 
            cce0             cce0        0     1                 .L0 
            cd10             cd10        0     1                 .L0 
            cd40             cd40        0     1                 .L0 
            cd70             cd70        0     1                 .L0 
            cda0             cda0        0     1                 .L0 
            cdd0             cdd0        0     1                 .L0 
            ce10             ce10        0     1                 .L0 
            ce50             ce50        0     1                 .L0 
            ce80             ce80        0     1                 .L0 
            ceb0             ceb0        0     1                 .L0 
            cf00             cf00        0     1                 .L0 
            cf30             cf30        0     1                 .L0 
            cf60             cf60        0     1                 .L0 
            cf90             cf90        0     1                 .L0 
            cfd0             cfd0        0     1                 .L0 
            d010             d010        0     1                 .L0 
            d050             d050        0     1                 .L0 
            d080             d080        0     1                 .L0 
            d0b0             d0b0        0     1                 .L0 
            d0e0             d0e0        0     1                 .L0 
            d110             d110        0     1                 .L0 
            d140             d140        0     1                 .L0 
            d170             d170        0     1                 .L0 
            d1a0             d1a0        0     1                 .L0 
            d1d0             d1d0        0     1                 .L0 
            d210             d210        0     1                 .L0 
            d240             d240        0     1                 .L0 
            d270             d270        0     1                 .L0 
            d2b0             d2b0        0     1                 .L0 
            d2e0             d2e0        0     1                 .L0 
            d310             d310        0     1                 .L0 
            d340             d340        0     1                 .L0 
            d370             d370        0     1                 .L0 
            d3a0             d3a0        0     1                 .L0 
            d3d0             d3d0        0     1                 .L0 
            d400             d400        0     1                 .L0 
            d430             d430        0     1                 .L0 
            d460             d460        0     1                 .L0 
            d490             d490        0     1                 .L0 
            d4c0             d4c0        0     1                 .L0 
            d4f0             d4f0        0     1                 .L0 
            d520             d520        0     1                 .L0 
            d560             d560        0     1                 .L0 
            d5a0             d5a0        0     1                 .L0 
            d5e0             d5e0        0     1                 .L0 
            d610             d610        0     1                 .L0 
            d660             d660        0     1                 .L0 
            d6b0             d6b0        0     1                 .L0 
            d700             d700        0     1                 .L0 
            d730             d730        0     1                 .L0 
            d760             d760        0     1                 .L0 
            d790             d790        0     1                 .L0 
            d7c0             d7c0        0     1                 .L0 
            d7f0             d7f0        0     1                 .L0 
            d830             d830        0     1                 .L0 
            d860             d860        0     1                 .L0 
            d890             d890        0     1                 .L0 
            d8c0             d8c0        0     1                 .L0 
            d8f0             d8f0        0     1                 .L0 
            d920             d920        0     1                 .L0 
            d950             d950        0     1                 .L0 
            d980             d980        0     1                 .L0 
            d9b0             d9b0        0     1                 .L0 
            d9e0             d9e0        0     1                 .L0 
            da10             da10        0     1                 .L0 
            da40             da40        0     1                 .L0 
            da70             da70        0     1                 .L0 
            daa0             daa0        0     1                 .L0 
            dad0             dad0        0     1                 .L0 
            db00             db00        0     1                 .L0 
            db40             db40        0     1                 .L0 
            db80             db80        0     1                 .L0 
            dbc0             dbc0        0     1                 .L0 
            dc00             dc00        0     1                 .L0 
            dc40             dc40        0     1                 .L0 
            dc80             dc80        0     1                 .L0 
            dcb0             dcb0        0     1                 .L0 
            dce0             dce0        0     1                 .L0 
            dd10             dd10        0     1                 .L0 
            dd40             dd40        0     1                 .L0 
            dd70             dd70        0     1                 .L0 
            dda0             dda0        0     1                 .L0 
            ddd0             ddd0        0     1                 .L0 
            de00             de00        0     1                 .L0 
            de30             de30        0     1                 .L0 
            de70             de70        0     1                 .L0 
            dea0             dea0        0     1                 .L0 
            ded0             ded0        0     1                 .L0 
            df00             df00        0     1                 .L0 
            df30             df30        0     1                 .L0 
            df60             df60        0     1                 .L0 
            df90             df90        0     1                 .L0 
            dfc0             dfc0        0     1                 .L0 
            dff0             dff0        0     1                 .L0 
            e020             e020        0     1                 .L0 
            e050             e050        0     1                 .L0 
            e080             e080        0     1                 .L0 
            e0b0             e0b0        0     1                 .L0 
            e0e0             e0e0        0     1                 .L0 
            e360             e360        0     1                 .L0 
            e5e0             e5e0        0     1                 .L0 
            e610             e610        0     1                 .L0 
            e640             e640        0     1                 .L0 
            e670             e670        0     1                 .L0 
            e6a0             e6a0        0     1                 .L0 
            e6d0             e6d0        0     1                 .L0 
            e700             e700        0     1                 .L0 
            e730             e730        0     1                 .L0 
            e760             e760        0     1                 .L0 
            e790             e790        0     1                 .L0 
            e7c0             e7c0        0     1                 .L0 
            e800             e800        0     1                 .L0 
            e830             e830        0     1                 .L0 
            e860             e860        0     1                 .L0 
            e890             e890        0     1                 .L0 
            e8c0             e8c0        0     1                 .L0 
            e910             e910        0     1                 .L0 
            e940             e940        0     1                 .L0 
            e980             e980        0     1                 .L0 
            e9c0             e9c0        0     1                 .L0 
            ea00             ea00        0     1                 .L0 
            ea30             ea30        0     1                 .L0 
            ea60             ea60        0     1                 .L0 
            ea90             ea90        0     1                 .L0 
            eac0             eac0        0     1                 .L0 
            eb00             eb00        0     1                 .L0 
            eb30             eb30        0     1                 .L0 
            eb60             eb60        0     1                 .L0 
            eb90             eb90        0     1                 .L0 
            ebc0             ebc0        0     1                 .L0 
            ebf0             ebf0        0     1                 .L0 
            ec20             ec20        0     1                 .L0 
            ec50             ec50        0     1                 .L0 
            ec90             ec90        0     1                 .L0 
            ecc0             ecc0        0     1                 .L0 
            ecf0             ecf0        0     1                 .L0 
            ed20             ed20        0     1                 .L0 
            ed50             ed50        0     1                 .L0 
            ed80             ed80        0     1                 .L0 
            edb0             edb0        0     1                 .L0 
            ede0             ede0        0     1                 .L0 
            ee10             ee10        0     1                 .L0 
            ee40             ee40        0     1                 .L0 
            ee80             ee80        0     1                 .L0 
            eec0             eec0        0     1                 .L0 
            ef00             ef00        0     1                 .L0 
            ef30             ef30        0     1                 .L0 
            ef60             ef60        0     1                 .L0 
            ef90             ef90        0     1                 .L0 
            efc0             efc0        0     1                 .L0 
            eff0             eff0        0     1                 .L0 
            f020             f020        0     1                 .L0 
            f050             f050        0     1                 .L0 
            f080             f080        0     1                 .L0 
            f0b0             f0b0        0     1                 .L0 
            f0e0             f0e0        0     1                 .L0 
            f110             f110        0     1                 .L0 
            f140             f140        0     1                 .L0 
            f170             f170        0     1                 .L0 
            f1a0             f1a0        0     1                 .L0 
            f1d0             f1d0        0     1                 .L0 
            f200             f200        0     1                 .L0 
            f230             f230        0     1                 .L0 
            f260             f260        0     1                 .L0 
            f2a0             f2a0        0     1                 .L0 
            f2e0             f2e0        0     1                 .L0 
            f310             f310        0     1                 .L0 
            f340             f340        0     1                 .L0 
            f370             f370        0     1                 .L0 
            f3a0             f3a0        0     1                 .L0 
            f3d0             f3d0        0     1                 .L0 
            f400             f400        0     1                 .L0 
            f430             f430        0     1                 .L0 
            f460             f460        0     1                 .L0 
            f490             f490        0     1                 .L0 
            f4e0             f4e0        0     1                 .L0 
            f530             f530        0     1                 .L0 
            f580             f580        0     1                 .L0 
            f5e0             f5e0        0     1                 .L0 
            f640             f640        0     1                 .L0 
            f670             f670        0     1                 .L0 
            f6a0             f6a0        0     1                 .L0 
            f6d0             f6d0        0     1                 .L0 
            f700             f700        0     1                 .L0 
            f730             f730        0     1                 .L0 
            f760             f760        0     1                 .L0 
            f790             f790        0     1                 .L0 
            f7d0             f7d0        0     1                 .L0 
            f810             f810        0     1                 .L0 
            f840             f840        0     1                 .L0 
            f870             f870        0     1                 .L0 
            f8a0             f8a0        0     1                 .L0 
            f8d0             f8d0        0     1                 .L0 
            f900             f900        0     1                 .L0 
            f930             f930        0     1                 .L0 
            f960             f960        0     1                 .L0 
            f990             f990        0     1                 .L0 
            f9c0             f9c0        0     1                 .L0 
            f9f0             f9f0        0     1                 .L0 
            fa20             fa20        0     1                 .L0 
            fa50             fa50        0     1                 .L0 
            fa80             fa80        0     1                 .L0 
            fab0             fab0        0     1                 .L0 
            fae0             fae0        0     1                 .L0 
            fb10             fb10        0     1                 .L0 
            fb40             fb40        0     1                 .L0 
            fb70             fb70        0     1                 .L0 
            fba0             fba0        0     1                 .L0 
            fbd0             fbd0        0     1                 .L0 
            fc00             fc00        0     1                 .L0 
            fc30             fc30        0     1                 .L0 
            fc60             fc60        0     1                 .L0 
            fc90             fc90        0     1                 .L0 
            fcd0             fcd0        0     1                 .L0 
            fd00             fd00        0     1                 .L0 
            fd30             fd30        0     1                 .L0 
            fd60             fd60        0     1                 .L0 
            fd90             fd90        0     1                 .L0 
            fdc0             fdc0        0     1                 .L0 
            fdf0             fdf0        0     1                 .L0 
            fe20             fe20        0     1                 .L0 
            fe50             fe50        0     1                 .L0 
            fe80             fe80        0     1                 .L0 
            feb0             feb0        0     1                 .L0 
            fef0             fef0        0     1                 .L0 
            ff30             ff30        0     1                 .L0 
            ff60             ff60        0     1                 .L0 
            ff90             ff90        0     1                 .L0 
            ffc0             ffc0        0     1                 .L0 
            fff0             fff0        0     1                 .L0 
           10020            10020        0     1                 .L0 
           10050            10050        0     1                 .L0 
           10090            10090        0     1                 .L0 
           100d0            100d0        0     1                 .L0 
           10100            10100        0     1                 .L0 
           10130            10130        0     1                 .L0 
           10160            10160        0     1                 .L0 
           10190            10190        0     1                 .L0 
           101e0            101e0        0     1                 .L0 
           10220            10220        0     1                 .L0 
           10260            10260        0     1                 .L0 
           102a0            102a0        0     1                 .L0 
           102e0            102e0        0     1                 .L0 
           10330            10330        0     1                 .L0 
           10360            10360        0     1                 .L0 
           103a0            103a0        0     1                 .L0 
           103e0            103e0        0     1                 .L0 
           10410            10410        0     1                 .L0 
           10450            10450        0     1                 .L0 
           10480            10480        0     1                 .L0 
           104b0            104b0        0     1                 .L0 
           104e0            104e0        0     1                 .L0 
           10510            10510        0     1                 .L0 
           10540            10540        0     1                 .L0 
           10570            10570        0     1                 .L0 
           105a0            105a0        0     1                 .L0 
           105e0            105e0        0     1                 .L0 
           10620            10620        0     1                 .L0 
           10660            10660        0     1                 .L0 
           10690            10690        0     1                 .L0 
           106c0            106c0        0     1                 .L0 
           106f0            106f0        0     1                 .L0 
           10720            10720        0     1                 .L0 
           10750            10750        0     1                 .L0 
           10790            10790        0     1                 .L0 
           107d0            107d0        0     1                 .L0 
           10810            10810        0     1                 .L0 
           10840            10840        0     1                 .L0 
           10870            10870        0     1                 .L0 
           108a0            108a0        0     1                 .L0 
           108d0            108d0        0     1                 .L0 
           10900            10900        0     1                 .L0 
           10930            10930        0     1                 .L0 
           10960            10960        0     1                 .L0 
           10990            10990        0     1                 .L0 
           109c0            109c0        0     1                 .L0 
           109f0            109f0        0     1                 .L0 
           10a20            10a20        0     1                 .L0 
           10a60            10a60        0     1                 .L0 
           10aa0            10aa0        0     1                 .L0 
           10ad0            10ad0        0     1                 .L0 
           10b00            10b00        0     1                 .L0 
           10b30            10b30        0     1                 .L0 
           10b60            10b60        0     1                 .L0 
           10b90            10b90        0     1                 .L0 
           10bc0            10bc0        0     1                 .L0 
           10bf0            10bf0        0     1                 .L0 
           10c20            10c20        0     1                 .L0 
           10c70            10c70        0     1                 .L0 
           10cb0            10cb0        0     1                 .L0 
           10ce0            10ce0        0     1                 .L0 
           10d10            10d10        0     1                 .L0 
           10d40            10d40        0     1                 .L0 
           10d70            10d70        0     1                 .L0 
           10da0            10da0        0     1                 .L0 
           10dd0            10dd0        0     1                 .L0 
           10e00            10e00        0     1                 .L0 
           10e30            10e30        0     1                 .L0 
           10e80            10e80        0     1                 .L0 
           10ec0            10ec0        0     1                 .L0 
           10f00            10f00        0     1                 .L0 
           10f40            10f40        0     1                 .L0 
           10f80            10f80        0     1                 .L0 
           10fb0            10fb0        0     1                 .L0 
           10fe0            10fe0        0     1                 .L0 
           11010            11010        0     1                 .L0 
           11040            11040        0     1                 .L0 
           11080            11080        0     1                 .L0 
           110b0            110b0        0     1                 .L0 
           110e0            110e0        0     1                 .L0 
           11110            11110        0     1                 .L0 
           11140            11140        0     1                 .L0 
           11170            11170        0     1                 .L0 
           111a0            111a0        0     1                 .L0 
           111d0            111d0        0     1                 .L0 
           11200            11200        0     1                 .L0 
           11230            11230        0     1                 .L0 
           11260            11260        0     1                 .L0 
           11290            11290        0     1                 .L0 
           112c0            112c0        0     1                 .L0 
           112f0            112f0        0     1                 .L0 
           11320            11320        0     1                 .L0 
           11360            11360        0     1                 .L0 
           113a0            113a0        0     1                 .L0 
           113d0            113d0        0     1                 .L0 
           11400            11400        0     1                 .L0 
           11430            11430        0     1                 .L0 
           11470            11470        0     1                 .L0 
           114b0            114b0        0     1                 .L0 
           114e0            114e0        0     1                 .L0 
           11510            11510        0     1                 .L0 
           11540            11540        0     1                 .L0 
           11570            11570        0     1                 .L0 
           115a0            115a0        0     1                 .L0 
           115d0            115d0        0     1                 .L0 
           11610            11610        0     1                 .L0 
           11640            11640        0     1                 .L0 
           11670            11670        0     1                 .L0 
           116b0            116b0        0     1                 .L0 
           116f0            116f0        0     1                 .L0 
           11730            11730        0     1                 .L0 
           11760            11760        0     1                 .L0 
           117a0            117a0        0     1                 .L0 
           117d0            117d0        0     1                 .L0 
           11800            11800        0     1                 .L0 
           11830            11830        0     1                 .L0 
           11860            11860        0     1                 .L0 
           11890            11890        0     1                 .L0 
           118c0            118c0        0     1                 .L0 
           118f0            118f0        0     1                 .L0 
           11920            11920        0     1                 .L0 
           11950            11950        0     1                 .L0 
           11980            11980        0     1                 .L0 
           119b0            119b0        0     1                 .L0 
           119f0            119f0        0     1                 .L0 
           11a30            11a30        0     1                 .L0 
           11a70            11a70        0     1                 .L0 
           11aa0            11aa0        0     1                 .L0 
           11ad0            11ad0        0     1                 .L0 
           11b00            11b00        0     1                 .L0 
           11b30            11b30        0     1                 .L0 
           11b70            11b70        0     1                 .L0 
           11bb0            11bb0        0     1                 .L0 
           11be0            11be0        0     1                 .L0 
           11c30            11c30        0     1                 .L0 
           11c70            11c70        0     1                 .L0 
           11cb0            11cb0        0     1                 .L0 
           11cf0            11cf0        0     1                 .L0 
           11d30            11d30        0     1                 .L0 
           11d70            11d70        0     1                 .L0 
           11db0            11db0        0     1                 .L0 
           11df0            11df0        0     1                 .L0 
           11e30            11e30        0     1                 .L0 
           11e70            11e70        0     1                 .L0 
           11eb0            11eb0        0     1                 .L0 
           11f00            11f00        0     1                 .L0 
           11f40            11f40        0     1                 .L0 
           11f80            11f80        0     1                 .L0 
           11fc0            11fc0        0     1                 .L0 
           12000            12000        0     1                 .L0 
           12040            12040        0     1                 .L0 
           12080            12080        0     1                 .L0 
           120c0            120c0        0     1                 .L0 
           12100            12100        0     1                 .L0 
           12140            12140        0     1                 .L0 
           12180            12180        0     1                 .L0 
           121c0            121c0        0     1                 .L0 
           12200            12200        0     1                 .L0 
           12240            12240        0     1                 .L0 
           12280            12280        0     1                 .L0 
           122c0            122c0        0     1                 .L0 
           12300            12300        0     1                 .L0 
           12340            12340        0     1                 .L0 
           12380            12380        0     1                 .L0 
           123c0            123c0        0     1                 .L0 
           12400            12400        0     1                 .L0 
           12440            12440        0     1                 .L0 
           12480            12480        0     1                 .L0 
           124c0            124c0        0     1                 .L0 
           124f0            124f0        0     1                 .L0 
           12540            12540        0     1                 .L0 
           12570            12570        0     1                 .L0 
           125a0            125a0        0     1                 .L0 
           125d0            125d0        0     1                 .L0 
           12600            12600        0     1                 .L0 
           12640            12640        0     1                 .L0 
           12670            12670        0     1                 .L0 
           126a0            126a0        0     1                 .L0 
           126d0            126d0        0     1                 .L0 
           12700            12700        0     1                 .L0 
           12730            12730        0     1                 .L0 
           12760            12760        0     1                 .L0 
           127a0            127a0        0     1                 .L0 
           127d0            127d0        0     1                 .L0 
           12810            12810        0     1                 .L0 
           12840            12840        0     1                 .L0 
           12870            12870        0     1                 .L0 
           128a0            128a0        0     1                 .L0 
           128d0            128d0        0     1                 .L0 
           12900            12900        0     1                 .L0 
           12930            12930        0     1                 .L0 
           12960            12960        0     1                 .L0 
           12990            12990        0     1                 .L0 
           129c0            129c0        0     1                 .L0 
           129f0            129f0        0     1                 .L0 
           12a20            12a20        0     1                 .L0 
           12a50            12a50        0     1                 .L0 
           12a80            12a80        0     1                 .L0 
           12ab0            12ab0        0     1                 .L0 
           12ae0            12ae0        0     1                 .L0 
           12b10            12b10        0     1                 .L0 
           12b40            12b40        0     1                 .L0 
           12b70            12b70        0     1                 .L0 
           12ba0            12ba0        0     1                 .L0 
           12bd0            12bd0        0     1                 .L0 
           12c00            12c00        0     1                 .L0 
           12c30            12c30        0     1                 .L0 
           12c60            12c60        0     1                 .L0 
           12c90            12c90        0     1                 .L0 
           12cd0            12cd0        0     1                 .L0 
           12d10            12d10        0     1                 .L0 
           12d50            12d50        0     1                 .L0 
           12d80            12d80        0     1                 .L0 
           12db0            12db0        0     1                 .L0 
           12de0            12de0        0     1                 .L0 
           12e20            12e20        0     1                 .L0 
           12e50            12e50        0     1                 .L0 
           12e80            12e80        0     1                 .L0 
           12eb0            12eb0        0     1                 .L0 
           12ee0            12ee0        0     1                 .L0 
           12f10            12f10        0     1                 .L0 
           12f40            12f40        0     1                 .L0 
           12f70            12f70        0     1                 .L0 
           12fb0            12fb0        0     1                 .L0 
           12fe0            12fe0        0     1                 .L0 
           13010            13010        0     1                 .L0 
           13040            13040        0     1                 .L0 
           13080            13080        0     1                 .L0 
           130b0            130b0        0     1                 .L0 
           130e0            130e0        0     1                 .L0 
           13110            13110        0     1                 .L0 
           13140            13140        0     1                 .L0 
           13180            13180        0     1                 .L0 
           131b0            131b0        0     1                 .L0 
           131e0            131e0        0     1                 .L0 
           13210            13210        0     1                 .L0 
           13250            13250        0     1                 .L0 
           13280            13280        0     1                 .L0 
           132b0            132b0        0     1                 .L0 
           132e0            132e0        0     1                 .L0 
           13310            13310        0     1                 .L0 
           13350            13350        0     1                 .L0 
           13390            13390        0     1                 .L0 
           133c0            133c0        0     1                 .L0 
           133f0            133f0        0     1                 .L0 
           13420            13420        0     1                 .L0 
           13450            13450        0     1                 .L0 
           13480            13480        0     1                 .L0 
           134b0            134b0        0     1                 .L0 
           134f0            134f0        0     1                 .L0 
           13530            13530        0     1                 .L0 
           13570            13570        0     1                 .L0 
           135b0            135b0        0     1                 .L0 
           135f0            135f0        0     1                 .L0 
           13630            13630        0     1                 .L0 
           13660            13660        0     1                 .L0 
           136e0            136e0        0     1                 .L0 
           13750            13750        0     1                 .L0 
           137a0            137a0        0     1                 .L0 
           137f0            137f0        0     1                 .L0 
           13830            13830        0     1                 .L0 
           13870            13870        0     1                 .L0 
           138a0            138a0        0     1                 .L0 
           138d0            138d0        0     1                 .L0 
           13900            13900        0     1                 .L0 
           13930            13930        0     1                 .L0 
           13960            13960        0     1                 .L0 
           13990            13990        0     1                 .L0 
           139c0            139c0        0     1                 .L0 
           13a10            13a10        0     1                 .L0 
           13a50            13a50        0     1                 .L0 
           13a90            13a90        0     1                 .L0 
           13ad0            13ad0        0     1                 .L0 
           13b10            13b10        0     1                 .L0 
           13b40            13b40        0     1                 .L0 
           13b70            13b70        0     1                 .L0 
           13ba0            13ba0        0     1                 .L0 
           13bd0            13bd0        0     1                 .L0 
           13c00            13c00        0     1                 .L0 
           13c30            13c30        0     1                 .L0 
           13c60            13c60        0     1                 .L0 
           13cb0            13cb0        0     1                 .L0 
           13ce0            13ce0        0     1                 .L0 
           13d10            13d10        0     1                 .L0 
           13d40            13d40        0     1                 .L0 
           13d70            13d70        0     1                 .L0 
           13db0            13db0        0     1                 .L0 
           13de0            13de0        0     1                 .L0 
           13e10            13e10        0     1                 .L0 
           13e40            13e40        0     1                 .L0 
           13e70            13e70        0     1                 .L0 
           13ec0            13ec0        0     1                 .L0 
           13f00            13f00        0     1                 .L0 
           13f30            13f30        0     1                 .L0 
           13f60            13f60        0     1                 .L0 
           13f90            13f90        0     1                 .L0 
           13fc0            13fc0        0     1                 .L0 
           14000            14000        0     1                 .L0 
           14030            14030        0     1                 .L0 
           14060            14060        0     1                 .L0 
           14090            14090        0     1                 .L0 
           140c0            140c0        0     1                 .L0 
           140f0            140f0        0     1                 .L0 
           14130            14130        0     1                 .L0 
           14170            14170        0     1                 .L0 
           141b0            141b0        0     1                 .L0 
           141f0            141f0        0     1                 .L0 
           14220            14220        0     1                 .L0 
           14250            14250        0     1                 .L0 
           14280            14280        0     1                 .L0 
           142b0            142b0        0     1                 .L0 
           142e0            142e0        0     1                 .L0 
           14310            14310        0     1                 .L0 
           14340            14340        0     1                 .L0 
           14370            14370        0     1                 .L0 
           143a0            143a0        0     1                 .L0 
           143d0            143d0        0     1                 .L0 
           14400            14400        0     1                 .L0 
           14430            14430        0     1                 .L0 
           14460            14460        0     1                 .L0 
           14490            14490        0     1                 .L0 
           144c0            144c0        0     1                 .L0 
           144f0            144f0        0     1                 .L0 
           14520            14520        0     1                 .L0 
           14550            14550        0     1                 .L0 
           14580            14580        0     1                 .L0 
           145b0            145b0        0     1                 .L0 
           145e0            145e0        0     1                 .L0 
           14610            14610        0     1                 .L0 
           14640            14640        0     1                 .L0 
           14670            14670        0     1                 .L0 
           146b0            146b0        0     1                 .L0 
           146e0            146e0        0     1                 .L0 
           14710            14710        0     1                 .L0 
           14740            14740        0     1                 .L0 
           14770            14770        0     1                 .L0 
           147a0            147a0        0     1                 .L0 
           147d0            147d0        0     1                 .L0 
           14800            14800        0     1                 .L0 
           14830            14830        0     1                 .L0 
           14860            14860        0     1                 .L0 
           14890            14890        0     1                 .L0 
           148c0            148c0        0     1                 .L0 
           148f0            148f0        0     1                 .L0 
           14920            14920        0     1                 .L0 
           14950            14950        0     1                 .L0 
           14980            14980        0     1                 .L0 
           149c0            149c0        0     1                 .L0 
           149f0            149f0        0     1                 .L0 
           14a20            14a20        0     1                 .L0 
           14a50            14a50        0     1                 .L0 
           14a80            14a80        0     1                 .L0 
           14ab0            14ab0        0     1                 .L0 
           14ae0            14ae0        0     1                 .L0 
           14b10            14b10        0     1                 .L0 
           14b40            14b40        0     1                 .L0 
           14b70            14b70        0     1                 .L0 
           14ba0            14ba0        0     1                 .L0 
           14bd0            14bd0        0     1                 .L0 
           14c00            14c00        0     1                 .L0 
           14c30            14c30        0     1                 .L0 
           14c70            14c70        0     1                 .L0 
           14cb0            14cb0        0     1                 .L0 
           14cf0            14cf0        0     1                 .L0 
           14d20            14d20        0     1                 .L0 
           14d50            14d50        0     1                 .L0 
           14d90            14d90        0     1                 .L0 
           14dc0            14dc0        0     1                 .L0 
           14df0            14df0        0     1                 .L0 
           14e20            14e20        0     1                 .L0 
           14e50            14e50        0     1                 .L0 
           14e80            14e80        0     1                 .L0 
           14eb0            14eb0        0     1                 .L0 
           14ee0            14ee0        0     1                 .L0 
           14f10            14f10        0     1                 .L0 
           14f40            14f40        0     1                 .L0 
           14f70            14f70        0     1                 .L0 
           14fa0            14fa0        0     1                 .L0 
           14fd0            14fd0        0     1                 .L0 
           15010            15010        0     1                 .L0 
           15050            15050        0     1                 .L0 
           15080            15080        0     1                 .L0 
           150c0            150c0        0     1                 .L0 
           150f0            150f0        0     1                 .L0 
           15120            15120        0     1                 .L0 
           15150            15150        0     1                 .L0 
           15180            15180        0     1                 .L0 
           151b0            151b0        0     1                 .L0 
           151e0            151e0        0     1                 .L0 
           15210            15210        0     1                 .L0 
           15240            15240        0     1                 .L0 
           15280            15280        0     1                 .L0 
           152c0            152c0        0     1                 .L0 
           15300            15300        0     1                 .L0 
           15340            15340        0     1                 .L0 
           15370            15370        0     1                 .L0 
           153a0            153a0        0     1                 .L0 
           153f0            153f0        0     1                 .L0 
           15430            15430        0     1                 .L0 
           15480            15480        0     1                 .L0 
           154d0            154d0        0     1                 .L0 
           15500            15500        0     1                 .L0 
           15530            15530        0     1                 .L0 
           15560            15560        0     1                 .L0 
           155a0            155a0        0     1                 .L0 
           155e0            155e0        0     1                 .L0 
           15620            15620        0     1                 .L0 
           15660            15660        0     1                 .L0 
           156a0            156a0        0     1                 .L0 
           156e0            156e0        0     1                 .L0 
           15710            15710        0     1                 .L0 
           15740            15740        0     1                 .L0 
           15770            15770        0     1                 .L0 
           157b0            157b0        0     1                 .L0 
           157f0            157f0        0     1                 .L0 
           15820            15820        0     1                 .L0 
           15850            15850        0     1                 .L0 
           15880            15880        0     1                 .L0 
           158b0            158b0        0     1                 .L0 
           158e0            158e0        0     1                 .L0 
           15910            15910        0     1                 .L0 
           15970            15970        0     1                 .L0 
           159d0            159d0        0     1                 .L0 
           15a00            15a00        0     1                 .L0 
           15a50            15a50        0     1                 .L0 
           15ab0            15ab0        0     1                 .L0 
           15b10            15b10        0     1                 .L0 
           15b70            15b70        0     1                 .L0 
           15ba0            15ba0        0     1                 .L0 
           15bd0            15bd0        0     1                 .L0 
           15c00            15c00        0     1                 .L0 
           15c30            15c30        0     1                 .L0 
           15c60            15c60        0     1                 .L0 
           15ca0            15ca0        0     1                 .L0 
           15cd0            15cd0        0     1                 .L0 
           15d00            15d00        0     1                 .L0 
           15d30            15d30        0     1                 .L0 
           15d60            15d60        0     1                 .L0 
           15d90            15d90        0     1                 .L0 
           15dc0            15dc0        0     1                 .L0 
           15e00            15e00        0     1                 .L0 
           15e40            15e40        0     1                 .L0 
           15e70            15e70        0     1                 .L0 
           15ea0            15ea0        0     1                 .L0 
           15ed0            15ed0        0     1                 .L0 
           15f00            15f00        0     1                 .L0 
           15f30            15f30        0     1                 .L0 
           15f70            15f70        0     1                 .L0 
           15fb0            15fb0        0     1                 .L0 
           15fe0            15fe0        0     1                 .L0 
           16010            16010        0     1                 .L0 
           16050            16050        0     1                 .L0 
           16090            16090        0     1                 .L0 
           160c0            160c0        0     1                 .L0 
           16110            16110        0     1                 .L0 
           16140            16140        0     1                 .L0 
           16170            16170        0     1                 .L0 
           161a0            161a0        0     1                 .L0 
           161d0            161d0        0     1                 .L0 
           16200            16200        0     1                 .L0 
           16230            16230        0     1                 .L0 
           16270            16270        0     1                 .L0 
           162b0            162b0        0     1                 .L0 
           162e0            162e0        0     1                 .L0 
           16310            16310        0     1                 .L0 
           16340            16340        0     1                 .L0 
           16370            16370        0     1                 .L0 
           163a0            163a0        0     1                 .L0 
           16400            16400        0     1                 .L0 
           16460            16460        0     1                 .L0 
           164c0            164c0        0     1                 .L0 
           16520            16520        0     1                 .L0 
           16580            16580        0     1                 .L0 
           165e0            165e0        0     1                 .L0 
           16640            16640        0     1                 .L0 
           16680            16680        0     1                 .L0 
           166c0            166c0        0     1                 .L0 
           166f0            166f0        0     1                 .L0 
           16720            16720        0     1                 .L0 
           16750            16750        0     1                 .L0 
           167b0            167b0        0     1                 .L0 
           16810            16810        0     1                 .L0 
           16870            16870        0     1                 .L0 
           168d0            168d0        0     1                 .L0 
           16930            16930        0     1                 .L0 
           16990            16990        0     1                 .L0 
           169f0            169f0        0     1                 .L0 
           16a30            16a30        0     1                 .L0 
           16a70            16a70        0     1                 .L0 
           16aa0            16aa0        0     1                 .L0 
           16ad0            16ad0        0     1                 .L0 
           16b00            16b00        0     1                 .L0 
           16b50            16b50        0     1                 .L0 
           16ba0            16ba0        0     1                 .L0 
           16bf0            16bf0        0     1                 .L0 
           16c40            16c40        0     1                 .L0 
           16c90            16c90        0     1                 .L0 
           16ce0            16ce0        0     1                 .L0 
           16d30            16d30        0     1                 .L0 
           16d70            16d70        0     1                 .L0 
           16db0            16db0        0     1                 .L0 
           16de0            16de0        0     1                 .L0 
           16e10            16e10        0     1                 .L0 
           16e40            16e40        0     1                 .L0 
           16ea0            16ea0        0     1                 .L0 
           16f00            16f00        0     1                 .L0 
           16f60            16f60        0     1                 .L0 
           16fc0            16fc0        0     1                 .L0 
           17020            17020        0     1                 .L0 
           17080            17080        0     1                 .L0 
           170e0            170e0        0     1                 .L0 
           17120            17120        0     1                 .L0 
           17160            17160        0     1                 .L0 
           171a0            171a0        0     1                 .L0 
           171d0            171d0        0     1                 .L0 
           17200            17200        0     1                 .L0 
           17230            17230        0     1                 .L0 
           17290            17290        0     1                 .L0 
           172f0            172f0        0     1                 .L0 
           17350            17350        0     1                 .L0 
           173b0            173b0        0     1                 .L0 
           17410            17410        0     1                 .L0 
           17470            17470        0     1                 .L0 
           174d0            174d0        0     1                 .L0 
           17510            17510        0     1                 .L0 
           17550            17550        0     1                 .L0 
           17590            17590        0     1                 .L0 
           17640            17640        0     1                 .L0 
           176f0            176f0        0     1                 .L0 
           177a0            177a0        0     1                 .L0 
           177d0            177d0        0     1                 .L0 
           17800            17800        0     1                 .L0 
           178b0            178b0        0     1                 .L0 
           17960            17960        0     1                 .L0 
           17a10            17a10        0     1                 .L0 
           17a40            17a40        0     1                 .L0 
           17a70            17a70        0     1                 .L0 
           196f0            196f0       90     1         /home/ryoj/.rustup/toolchains/nightly-x86_64-unknown-linux-gnu/lib/rustlib/riscv64gc-unknown-none-elf/lib/libcompiler_builtins-12400e53a9c73834.rlib(compiler_builtins-12400e53a9c73834.compiler_builtins.2b04ae1fd906da09-cgu.125.rcgu.o):(.debug_ranges)
           196f0            196f0        0     1                 .L0 
           196f0            196f0        0     1                 $d
           19720            19720        0     1                 .L0 
           19750            19750        0     1                 .L0 
           19780            19780       b0     1         /home/ryoj/.rustup/toolchains/nightly-x86_64-unknown-linux-gnu/lib/rustlib/riscv64gc-unknown-none-elf/lib/libcompiler_builtins-12400e53a9c73834.rlib(compiler_builtins-12400e53a9c73834.compiler_builtins.2b04ae1fd906da09-cgu.188.rcgu.o):(.debug_ranges)
           19780            19780        0     1                 .L0 
           19780            19780        0     1                 $d
           197b0            197b0        0     1                 .L0 
           197e0            197e0        0     1                 .L0 
           19830            19830       60     1         /home/ryoj/.rustup/toolchains/nightly-x86_64-unknown-linux-gnu/lib/rustlib/riscv64gc-unknown-none-elf/lib/libcompiler_builtins-12400e53a9c73834.rlib(compiler_builtins-12400e53a9c73834.compiler_builtins.2b04ae1fd906da09-cgu.213.rcgu.o):(.debug_ranges)
           19830            19830        0     1                 .L0 
           19830            19830        0     1                 $d
           19860            19860        0     1                 .L0 
           19890            19890      210     1         /home/ryoj/.rustup/toolchains/nightly-x86_64-unknown-linux-gnu/lib/rustlib/riscv64gc-unknown-none-elf/lib/libcompiler_builtins-12400e53a9c73834.rlib(compiler_builtins-12400e53a9c73834.compiler_builtins.2b04ae1fd906da09-cgu.010.rcgu.o):(.debug_ranges)
           19890            19890        0     1                 .L0 
           19890            19890        0     1                 $d
           198c0            198c0        0     1                 .L0 
           198f0            198f0        0     1                 .L0 
           19920            19920        0     1                 .L0 
           19960            19960        0     1                 .L0 
           199a0            199a0        0     1                 .L0 
           199d0            199d0        0     1                 .L0 
           19a00            19a00        0     1                 .L0 
           19a30            19a30        0     1                 .L0 
           19a60            19a60        0     1                 .L0 
               0                0     c528     8 .symtab
               0                0     c528     8         <internal>:(.symtab)
               0                0       ae     1 .shstrtab
               0                0       ae     1         <internal>:(.shstrtab)
               0                0     2cfc     1 .strtab
               0                0     2cfc     1         <internal>:(.strtab)
